ccopy_reg
_reconstructor
p1
(cpsychopy.data
ExperimentHandler
p2
c__builtin__
object
p3
NtRp4
(dp5
S'originPath'
p6
S'C:\\Users\\Cameron\\Google Drive\\Experiments\\Clear-Arguments-Experiment\\Arguments.psyexp'
p7
sS'dataFileName'
p8
VC:\u005cUsers\u005cCameron\u005cGoogle Drive\u005cExperiments\u005cClear-Arguments-Experiment\u005cdata/999_Arguments_2014_Nov_12_2304
p9
sS'runtimeInfo'
p10
NsS'name'
p11
S'Arguments'
p12
sS'dataNames'
p13
(lp14
S'rating.keys'
p15
aS'rating.rt'
p16
asS'autoLog'
p17
I01
sS'extraInfo'
p18
(dp19
S'date'
p20
V2014_Nov_12_2304
p21
sS'frameRate'
p22
cnumpy.core.multiarray
scalar
p23
(cnumpy
dtype
p24
(S'f8'
I0
I1
tRp25
(I3
S'<'
NNNI-1
I-1
I0
tbS'e\xe1m\xfbf\xdbH@'
tRp26
sS'expName'
p27
g12
sS'session'
p28
V001
p29
sS'participant'
p30
V999
p31
ssS'loopsUnfinished'
p32
(lp33
g1
(cpsychopy.data
TrialHandler
p34
g3
NtRp35
(dp36
S'origin'
p37
V<PsychoPy2experiment version="1.80.06" encoding="utf-8">\u000a  <Settings>\u000a    <Param name="Show mouse" val="False" valType="bool" updates="None"/>\u000a    <Param name="Data filename" val="'data/%s_%s_%s' %(expInfo['participant'], expName, expInfo['date'])" valType="code" updates="None"/>\u000a    <Param name="Monitor" val="testMonitor" valType="str" updates="None"/>\u000a    <Param name="Enable Escape" val="True" valType="bool" updates="None"/>\u000a    <Param name="color" val="$[0,0,0]" valType="str" updates="None"/>\u000a    <Param name="Window size (pixels)" val="[1024, 768]" valType="code" updates="None"/>\u000a    <Param name="Full-screen window" val="True" valType="bool" updates="None"/>\u000a    <Param name="colorSpace" val="rgb" valType="str" updates="None"/>\u000a    <Param name="Experiment info" val="{'participant':'', 'session':'001'}" valType="code" updates="None"/>\u000a    <Param name="Save csv file" val="False" valType="bool" updates="None"/>\u000a    <Param name="Show info dlg" val="True" valType="bool" updates="None"/>\u000a    <Param name="Save wide csv file" val="True" valType="bool" updates="None"/>\u000a    <Param name="Save psydat file" val="True" valType="bool" updates="None"/>\u000a    <Param name="expName" val="Arguments" valType="str" updates="None"/>\u000a    <Param name="logging level" val="exp" valType="code" updates="None"/>\u000a    <Param name="blendMode" val="avg" valType="str" updates="None"/>\u000a    <Param name="Save excel file" val="False" valType="bool" updates="None"/>\u000a    <Param name="Units" val="use prefs" valType="str" updates="None"/>\u000a    <Param name="Save log file" val="True" valType="bool" updates="None"/>\u000a    <Param name="Screen" val="1" valType="num" updates="None"/>\u000a  </Settings>\u000a  <Routines>\u000a    <Routine name="code2">\u000a      <CodeComponent name="read_CSV2">\u000a        <Param name="Begin Experiment" val="" valType="extendedCode" updates="constant"/>\u000a        <Param name="name" val="read_CSV2" valType="code" updates="None"/>\u000a        <Param name="Each Frame" val="" valType="extendedCode" updates="constant"/>\u000a        <Param name="Begin Routine" val="words = words.replace('&quot;','')" valType="extendedCode" updates="constant"/>\u000a        <Param name="End Routine" val="" valType="extendedCode" updates="constant"/>\u000a        <Param name="End Experiment" val="" valType="extendedCode" updates="constant"/>\u000a      </CodeComponent>\u000a    </Routine>\u000a    <Routine name="code">\u000a      <CodeComponent name="read_CSV">\u000a        <Param name="Begin Experiment" val="" valType="extendedCode" updates="constant"/>\u000a        <Param name="name" val="read_CSV" valType="code" updates="None"/>\u000a        <Param name="Each Frame" val="" valType="extendedCode" updates="constant"/>\u000a        <Param name="Begin Routine" val="argument = argument.replace('&quot;', '')" valType="extendedCode" updates="constant"/>\u000a        <Param name="End Routine" val="" valType="extendedCode" updates="constant"/>\u000a        <Param name="End Experiment" val="" valType="extendedCode" updates="constant"/>\u000a      </CodeComponent>\u000a    </Routine>\u000a    <Routine name="end">\u000a      <TextComponent name="End">\u000a        <Param name="opacity" val="1" valType="code" updates="constant"/>\u000a        <Param name="colorSpace" val="rgb" valType="str" updates="constant"/>\u000a        <Param name="name" val="End" valType="code" updates="None"/>\u000a        <Param name="wrapWidth" val="35" valType="code" updates="constant"/>\u000a        <Param name="color" val="white" valType="str" updates="constant"/>\u000a        <Param name="text" val="Thanks for participating!&#10;&#10;Please turn around and tell the experimenter that you have finished!" valType="str" updates="constant"/>\u000a        <Param name="stopVal" val="5" valType="code" updates="constant"/>\u000a        <Param name="durationEstim" val="" valType="code" updates="None"/>\u000a        <Param name="pos" val="[0, 0]" valType="code" updates="constant"/>\u000a        <Param name="flip" val="" valType="str" updates="constant"/>\u000a        <Param name="startEstim" val="" valType="code" updates="None"/>\u000a        <Param name="units" val="cm" valType="str" updates="None"/>\u000a        <Param name="startType" val="time (s)" valType="str" updates="None"/>\u000a        <Param name="ori" val="0" valType="code" updates="constant"/>\u000a        <Param name="stopType" val="duration (s)" valType="str" updates="None"/>\u000a        <Param name="startVal" val="0.0" valType="code" updates="None"/>\u000a        <Param name="font" val="Arial" valType="str" updates="constant"/>\u000a        <Param name="letterHeight" val="1" valType="code" updates="constant"/>\u000a      </TextComponent>\u000a    </Routine>\u000a    <Routine name="next_arg">\u000a      <TextComponent name="text_3">\u000a        <Param name="opacity" val="1" valType="code" updates="constant"/>\u000a        <Param name="colorSpace" val="rgb" valType="str" updates="constant"/>\u000a        <Param name="name" val="text_3" valType="code" updates="None"/>\u000a        <Param name="wrapWidth" val="" valType="code" updates="constant"/>\u000a        <Param name="color" val="white" valType="str" updates="constant"/>\u000a        <Param name="text" val="Press SPACE when you are ready to read the next argument." valType="str" updates="constant"/>\u000a        <Param name="stopVal" val="" valType="code" updates="constant"/>\u000a        <Param name="durationEstim" val="" valType="code" updates="None"/>\u000a        <Param name="pos" val="[0, 0]" valType="code" updates="constant"/>\u000a        <Param name="flip" val="" valType="str" updates="constant"/>\u000a        <Param name="startEstim" val="" valType="code" updates="None"/>\u000a        <Param name="units" val="from exp settings" valType="str" updates="None"/>\u000a        <Param name="startType" val="time (s)" valType="str" updates="None"/>\u000a        <Param name="ori" val="0" valType="code" updates="constant"/>\u000a        <Param name="stopType" val="duration (s)" valType="str" updates="None"/>\u000a        <Param name="startVal" val="0.5" valType="code" updates="None"/>\u000a        <Param name="font" val="Arial" valType="str" updates="constant"/>\u000a        <Param name="letterHeight" val="0.1" valType="code" updates="constant"/>\u000a      </TextComponent>\u000a      <KeyboardComponent name="Next_Argument">\u000a        <Param name="correctAns" val="" valType="str" updates="constant"/>\u000a        <Param name="storeCorrect" val="False" valType="bool" updates="constant"/>\u000a        <Param name="name" val="Next_Argument" valType="code" updates="None"/>\u000a        <Param name="stopVal" val="" valType="code" updates="constant"/>\u000a        <Param name="durationEstim" val="" valType="code" updates="None"/>\u000a        <Param name="forceEndRoutine" val="True" valType="bool" updates="constant"/>\u000a        <Param name="startEstim" val="" valType="code" updates="None"/>\u000a        <Param name="discard previous" val="True" valType="bool" updates="constant"/>\u000a        <Param name="startType" val="time (s)" valType="str" updates="None"/>\u000a        <Param name="allowedKeys" val="'space'" valType="code" updates="constant"/>\u000a        <Param name="stopType" val="duration (s)" valType="str" updates="None"/>\u000a        <Param name="startVal" val="0.5" valType="code" updates="None"/>\u000a        <Param name="store" val="nothing" valType="str" updates="constant"/>\u000a      </KeyboardComponent>\u000a    </Routine>\u000a    <Routine name="question">\u000a      <TextComponent name="question_text">\u000a        <Param name="opacity" val="1" valType="code" updates="constant"/>\u000a        <Param name="colorSpace" val="rgb" valType="str" updates="constant"/>\u000a        <Param name="name" val="question_text" valType="code" updates="None"/>\u000a        <Param name="wrapWidth" val="35" valType="code" updates="constant"/>\u000a        <Param name="color" val="white" valType="str" updates="constant"/>\u000a        <Param name="text" val="$question" valType="str" updates="set every repeat"/>\u000a        <Param name="stopVal" val="" valType="code" updates="constant"/>\u000a        <Param name="durationEstim" val="" valType="code" updates="None"/>\u000a        <Param name="pos" val="[0, 0]" valType="code" updates="constant"/>\u000a        <Param name="flip" val="" valType="str" updates="constant"/>\u000a        <Param name="startEstim" val="" valType="code" updates="None"/>\u000a        <Param name="units" val="cm" valType="str" updates="None"/>\u000a        <Param name="startType" val="time (s)" valType="str" updates="None"/>\u000a        <Param name="ori" val="0" valType="code" updates="constant"/>\u000a        <Param name="stopType" val="duration (s)" valType="str" updates="None"/>\u000a        <Param name="startVal" val="0.5" valType="code" updates="None"/>\u000a        <Param name="font" val="Arial" valType="str" updates="constant"/>\u000a        <Param name="letterHeight" val="1" valType="code" updates="constant"/>\u000a      </TextComponent>\u000a      <KeyboardComponent name="rating">\u000a        <Param name="correctAns" val="" valType="str" updates="constant"/>\u000a        <Param name="storeCorrect" val="False" valType="bool" updates="constant"/>\u000a        <Param name="name" val="rating" valType="code" updates="None"/>\u000a        <Param name="stopVal" val="" valType="code" updates="constant"/>\u000a        <Param name="durationEstim" val="" valType="code" updates="None"/>\u000a        <Param name="forceEndRoutine" val="True" valType="bool" updates="constant"/>\u000a        <Param name="startEstim" val="" valType="code" updates="None"/>\u000a        <Param name="discard previous" val="True" valType="bool" updates="constant"/>\u000a        <Param name="startType" val="time (s)" valType="str" updates="None"/>\u000a        <Param name="allowedKeys" val="'1','2','3','4','5','6','7','8','9'" valType="code" updates="constant"/>\u000a        <Param name="stopType" val="duration (s)" valType="str" updates="None"/>\u000a        <Param name="startVal" val="0.5" valType="code" updates="None"/>\u000a        <Param name="store" val="last key" valType="str" updates="constant"/>\u000a      </KeyboardComponent>\u000a    </Routine>\u000a    <Routine name="argument">\u000a      <ImageComponent name="text_image">\u000a        <Param name="opacity" val="1" valType="code" updates="constant"/>\u000a        <Param name="flipVert" val="False" valType="bool" updates="constant"/>\u000a        <Param name="colorSpace" val="rgb" valType="str" updates="constant"/>\u000a        <Param name="name" val="text_image" valType="code" updates="constant"/>\u000a        <Param name="color" val="$[1,1,1]" valType="str" updates="constant"/>\u000a        <Param name="stopVal" val="1.0" valType="code" updates="constant"/>\u000a        <Param name="durationEstim" val="" valType="code" updates="None"/>\u000a        <Param name="mask" val="None" valType="str" updates="constant"/>\u000a        <Param name="pos" val="[0, 0]" valType="code" updates="constant"/>\u000a        <Param name="interpolate" val="" valType="str" updates="constant"/>\u000a        <Param name="startEstim" val="" valType="code" updates="None"/>\u000a        <Param name="units" val="from exp settings" valType="str" updates="None"/>\u000a        <Param name="texture resolution" val="128" valType="code" updates="constant"/>\u000a        <Param name="startType" val="time (s)" valType="str" updates="None"/>\u000a        <Param name="ori" val="0" valType="code" updates="constant"/>\u000a        <Param name="stopType" val="duration (s)" valType="str" updates="None"/>\u000a        <Param name="startVal" val="0.0" valType="code" updates="None"/>\u000a        <Param name="flipHoriz" val="False" valType="bool" updates="constant"/>\u000a        <Param name="image" val="$words" valType="str" updates="set every repeat"/>\u000a        <Param name="size" val="[.25, .125]" valType="code" updates="constant"/>\u000a      </ImageComponent>\u000a    </Routine>\u000a    <Routine name="next_ques"/>\u000a    <Routine name="pause">\u000a      <TextComponent name="text_2">\u000a        <Param name="opacity" val="1" valType="code" updates="constant"/>\u000a        <Param name="colorSpace" val="rgb" valType="str" updates="constant"/>\u000a        <Param name="name" val="text_2" valType="code" updates="None"/>\u000a        <Param name="wrapWidth" val="" valType="code" updates="constant"/>\u000a        <Param name="color" val="white" valType="str" updates="constant"/>\u000a        <Param name="text" val="" valType="str" updates="constant"/>\u000a        <Param name="stopVal" val="1.5" valType="code" updates="constant"/>\u000a        <Param name="durationEstim" val="" valType="code" updates="None"/>\u000a        <Param name="pos" val="[0, 0]" valType="code" updates="constant"/>\u000a        <Param name="flip" val="" valType="str" updates="constant"/>\u000a        <Param name="startEstim" val="" valType="code" updates="None"/>\u000a        <Param name="units" val="from exp settings" valType="str" updates="None"/>\u000a        <Param name="startType" val="time (s)" valType="str" updates="None"/>\u000a        <Param name="ori" val="0" valType="code" updates="constant"/>\u000a        <Param name="stopType" val="duration (s)" valType="str" updates="None"/>\u000a        <Param name="startVal" val="0.0" valType="code" updates="None"/>\u000a        <Param name="font" val="Arial" valType="str" updates="constant"/>\u000a        <Param name="letterHeight" val="0.1" valType="code" updates="constant"/>\u000a      </TextComponent>\u000a    </Routine>\u000a    <Routine name="instructions">\u000a      <TextComponent name="Instructions">\u000a        <Param name="opacity" val="1" valType="code" updates="constant"/>\u000a        <Param name="colorSpace" val="rgb" valType="str" updates="constant"/>\u000a        <Param name="name" val="Instructions" valType="code" updates="None"/>\u000a        <Param name="wrapWidth" val="35" valType="code" updates="constant"/>\u000a        <Param name="color" val="white" valType="str" updates="constant"/>\u000a        <Param name="text" val="$text" valType="str" updates="set every repeat"/>\u000a        <Param name="stopVal" val="" valType="code" updates="constant"/>\u000a        <Param name="durationEstim" val="" valType="code" updates="None"/>\u000a        <Param name="pos" val="[0, 5]" valType="code" updates="constant"/>\u000a        <Param name="flip" val="" valType="str" updates="constant"/>\u000a        <Param name="startEstim" val="" valType="code" updates="None"/>\u000a        <Param name="units" val="cm" valType="str" updates="None"/>\u000a        <Param name="startType" val="time (s)" valType="str" updates="None"/>\u000a        <Param name="ori" val="0" valType="code" updates="constant"/>\u000a        <Param name="stopType" val="duration (s)" valType="str" updates="None"/>\u000a        <Param name="startVal" val="0.0" valType="code" updates="None"/>\u000a        <Param name="font" val="Arial" valType="str" updates="constant"/>\u000a        <Param name="letterHeight" val="1" valType="code" updates="constant"/>\u000a      </TextComponent>\u000a      <KeyboardComponent name="Next_Instr">\u000a        <Param name="correctAns" val="" valType="str" updates="constant"/>\u000a        <Param name="storeCorrect" val="False" valType="bool" updates="constant"/>\u000a        <Param name="name" val="Next_Instr" valType="code" updates="None"/>\u000a        <Param name="stopVal" val="" valType="code" updates="constant"/>\u000a        <Param name="durationEstim" val="" valType="code" updates="None"/>\u000a        <Param name="forceEndRoutine" val="True" valType="bool" updates="constant"/>\u000a        <Param name="startEstim" val="" valType="code" updates="None"/>\u000a        <Param name="discard previous" val="True" valType="bool" updates="constant"/>\u000a        <Param name="startType" val="time (s)" valType="str" updates="None"/>\u000a        <Param name="allowedKeys" val="'space'" valType="code" updates="constant"/>\u000a        <Param name="stopType" val="duration (s)" valType="str" updates="None"/>\u000a        <Param name="startVal" val="0.0" valType="code" updates="None"/>\u000a        <Param name="store" val="nothing" valType="str" updates="constant"/>\u000a      </KeyboardComponent>\u000a      <TextComponent name="Space_Continue">\u000a        <Param name="opacity" val="1" valType="code" updates="constant"/>\u000a        <Param name="colorSpace" val="rgb" valType="str" updates="constant"/>\u000a        <Param name="name" val="Space_Continue" valType="code" updates="None"/>\u000a        <Param name="wrapWidth" val="35" valType="code" updates="constant"/>\u000a        <Param name="color" val="white" valType="str" updates="constant"/>\u000a        <Param name="text" val="Press SPACE to continue" valType="str" updates="constant"/>\u000a        <Param name="stopVal" val="" valType="code" updates="constant"/>\u000a        <Param name="durationEstim" val="" valType="code" updates="None"/>\u000a        <Param name="pos" val="[0, -7]" valType="code" updates="constant"/>\u000a        <Param name="flip" val="" valType="str" updates="constant"/>\u000a        <Param name="startEstim" val="" valType="code" updates="None"/>\u000a        <Param name="units" val="cm" valType="str" updates="None"/>\u000a        <Param name="startType" val="time (s)" valType="str" updates="None"/>\u000a        <Param name="ori" val="0" valType="code" updates="constant"/>\u000a        <Param name="stopType" val="duration (s)" valType="str" updates="None"/>\u000a        <Param name="startVal" val="0.0" valType="code" updates="None"/>\u000a        <Param name="font" val="Arial" valType="str" updates="constant"/>\u000a        <Param name="letterHeight" val="1" valType="code" updates="constant"/>\u000a      </TextComponent>\u000a      <ImageComponent name="Instr_Pic">\u000a        <Param name="opacity" val="1" valType="code" updates="constant"/>\u000a        <Param name="flipVert" val="False" valType="bool" updates="constant"/>\u000a        <Param name="colorSpace" val="rgb" valType="str" updates="constant"/>\u000a        <Param name="name" val="Instr_Pic" valType="code" updates="constant"/>\u000a        <Param name="color" val="$[1,1,1]" valType="str" updates="constant"/>\u000a        <Param name="stopVal" val="" valType="code" updates="constant"/>\u000a        <Param name="durationEstim" val="" valType="code" updates="None"/>\u000a        <Param name="mask" val="None" valType="str" updates="constant"/>\u000a        <Param name="pos" val="$pos" valType="code" updates="set every repeat"/>\u000a        <Param name="interpolate" val="" valType="str" updates="constant"/>\u000a        <Param name="startEstim" val="" valType="code" updates="None"/>\u000a        <Param name="units" val="from exp settings" valType="str" updates="None"/>\u000a        <Param name="texture resolution" val="128" valType="code" updates="constant"/>\u000a        <Param name="startType" val="time (s)" valType="str" updates="None"/>\u000a        <Param name="ori" val="0" valType="code" updates="constant"/>\u000a        <Param name="stopType" val="duration (s)" valType="str" updates="None"/>\u000a        <Param name="startVal" val="0.0" valType="code" updates="None"/>\u000a        <Param name="flipHoriz" val="False" valType="bool" updates="constant"/>\u000a        <Param name="image" val="$image" valType="str" updates="set every repeat"/>\u000a        <Param name="size" val="[0.5, 0.5]" valType="code" updates="constant"/>\u000a      </ImageComponent>\u000a    </Routine>\u000a  </Routines>\u000a  <Flow>\u000a    <LoopInitiator loopType="TrialHandler" name="instr_data">\u000a      <Param name="conditionsFile" val="instructions.xlsx" valType="str" updates="None"/>\u000a      <Param name="name" val="instr_data" valType="code" updates="None"/>\u000a      <Param name="random seed" val="" valType="code" updates="None"/>\u000a      <Param name="loopType" val="sequential" valType="str" updates="None"/>\u000a      <Param name="nReps" val="1" valType="code" updates="None"/>\u000a      <Param name="endPoints" val="[0, 1]" valType="num" updates="None"/>\u000a      <Param name="conditions" val="[{u'text': u'We are piloting a new method for group-grading exam questions. In this first section you will be reading aloud several arguments taken from LAW 204, Written and Oral Advocacy, taught at the UC Berkeley Law School.', u'image': u'nothing.jpg', u'pos': [20, 20]}, {u'text': u'You will read through student responses taken from the essay portion of the midterm exam. In order to give an objective analysis, you will be asked to read the essay responses aloud. In addition, sentences from each essay response will be presented phrase-by-phrase, not all at once.', u'image': u'nothing.jpg', u'pos': [20, 20]}, {u'text': u'Handwriting has been cropped and digitized into snippets like the one below, each of which contain individual phrases:', u'image': u'words\u005c\u005cexample.jpg', u'pos': [0, 0]}, {u'text': u'These snippets of text will appear on the screen for only one second each. When each phrase appears please read it out loud.', u'image': u'nothing.jpg', u'pos': [20, 20]}, {u'text': u'After you have read through each argument, you will be asked several questions about the complete argument. Please try to answer these questions as objectively as possible, as if you were a teaching assistant grading this exam.', u'image': u'nothing.jpg', u'pos': [20, 20]}, {u'text': u&quot;After this slide you'll begin a practice session in order to familiarize yourself with how to evaluate these arguments. An experimenter will stand by to correct you if you make any mistakes. If you have any questions, please ask the experimenter now.&quot;, u'image': u'nothing.jpg', u'pos': [20, 20]}]" valType="str" updates="None"/>\u000a    </LoopInitiator>\u000a    <Routine name="instructions"/>\u000a    <LoopTerminator name="instr_data"/>\u000a    <Routine name="pause"/>\u000a    <LoopInitiator loopType="TrialHandler" name="arguments_data">\u000a      <Param name="conditionsFile" val="arguments.csv" valType="str" updates="None"/>\u000a      <Param name="name" val="arguments_data" valType="code" updates="None"/>\u000a      <Param name="random seed" val="" valType="code" updates="None"/>\u000a      <Param name="loopType" val="random" valType="str" updates="None"/>\u000a      <Param name="nReps" val="1" valType="code" updates="None"/>\u000a      <Param name="endPoints" val="[0, 1]" valType="num" updates="None"/>\u000a      <Param name="conditions" val="[{'argument': u'clear_01.csv'}, {'argument': u'messy_01.csv'}]" valType="str" updates="None"/>\u000a    </LoopInitiator>\u000a    <Routine name="code"/>\u000a    <LoopInitiator loopType="TrialHandler" name="word_data">\u000a      <Param name="conditionsFile" val="$argument" valType="str" updates="None"/>\u000a      <Param name="name" val="word_data" valType="code" updates="None"/>\u000a      <Param name="random seed" val="" valType="code" updates="None"/>\u000a      <Param name="loopType" val="sequential" valType="str" updates="None"/>\u000a      <Param name="nReps" val="1" valType="code" updates="None"/>\u000a      <Param name="endPoints" val="[0, 1]" valType="num" updates="None"/>\u000a      <Param name="conditions" val="None" valType="str" updates="None"/>\u000a    </LoopInitiator>\u000a    <Routine name="code2"/>\u000a    <Routine name="argument"/>\u000a    <LoopTerminator name="word_data"/>\u000a    <LoopInitiator loopType="TrialHandler" name="questions">\u000a      <Param name="conditionsFile" val="questions.csv" valType="str" updates="None"/>\u000a      <Param name="name" val="questions" valType="code" updates="None"/>\u000a      <Param name="random seed" val="" valType="code" updates="None"/>\u000a      <Param name="loopType" val="random" valType="str" updates="None"/>\u000a      <Param name="nReps" val="1" valType="code" updates="None"/>\u000a      <Param name="endPoints" val="[0, 1]" valType="num" updates="None"/>\u000a      <Param name="conditions" val="None" valType="str" updates="None"/>\u000a    </LoopInitiator>\u000a    <Routine name="question"/>\u000a    <LoopTerminator name="questions"/>\u000a    <Routine name="next_arg"/>\u000a    <LoopTerminator name="arguments_data"/>\u000a    <Routine name="end"/>\u000a  </Flow>\u000a</PsychoPy2experiment>\u000a
p38
sS'thisTrial'
p39
g1
(cpsychopy.data
TrialType
p40
c__builtin__
dict
p41
(dp42
S'argument'
p43
V"arg2clean.csv"
p44
stRp45
sS'_exp'
p46
I61206224
sg11
S'arguments_data'
p47
sg6
g7
sS'thisRepN'
p48
I0
sg17
I01
sg18
g19
sS'data'
p49
g1
(cpsychopy.data
DataHandler
p50
g41
(dp51
S'ran'
p52
cnumpy.ma.core
_mareconstruct
p53
(cnumpy.ma.core
MaskedArray
p54
cnumpy
ndarray
p55
(I0
tp56
S'b'
tRp57
(I1
(I3
I1
tg24
(S'f4'
I0
I1
tRp58
(I3
S'<'
NNNI-1
I-1
I0
tbI00
S'\x00\x00\x00\x00\x00\x00\x00\x00\x00\x00\x80?'
S'\x00\x00\x00'
NtbsS'order'
p59
g53
(g54
g55
g56
S'b'
tRp60
(I1
(I3
I1
tg58
I00
S'\x00\x00\x00\x00\x00\x00\x00\x00\x00\x00\x00\x00'
S'\x01\x01\x00'
NtbstRp61
(dp62
S'isNumeric'
p63
(dp64
g52
I01
sg59
I01
ssS'trials'
p65
g35
sS'dataTypes'
p66
(lp67
g52
ag59
asS'dataShape'
p68
(lp69
I3
aI1
asbsS'method'
p70
S'random'
p71
sS'sequenceIndices'
p72
cnumpy.core.multiarray
_reconstruct
p73
(g55
(I0
tS'b'
tRp74
(I1
(I3
I1
tg24
(S'i4'
I0
I1
tRp75
(I3
S'<'
NNNI-1
I-1
I0
tbI01
S'\x02\x00\x00\x00\x00\x00\x00\x00\x01\x00\x00\x00'
tbsS'finished'
p76
I00
sS'nReps'
p77
I1
sS'nRemaining'
p78
I2
sS'trialList'
p79
(lp80
g1
(g40
g41
(dp81
g43
V"clear_01.csv"
p82
stRp83
ag1
(g40
g41
(dp84
g43
V"messy_01.csv"
p85
stRp86
ag45
asS'seed'
p87
NsS'thisIndex'
p88
g23
(g75
S'\x02\x00\x00\x00'
tRp89
sS'thisN'
p90
I0
sS'thisTrialN'
p91
I0
sS'nTotal'
p92
I3
sS'_warnUseOfNext'
p93
I01
sbasS'saveWideText'
p94
I01
sS'thisEntry'
p95
(dp96
sS'version'
p97
S''
sS'_paramNamesSoFar'
p98
(lp99
Vtext
p100
aVimage
p101
aVpos
p102
ag43
aS'words'
p103
aS'question'
p104
asS'entries'
p105
(lp106
(dp107
g28
g29
sg30
g31
sS'instr_data.thisRepN'
p108
I0
sg100
VWe are piloting a new method for group-grading exam questions. In this first section you will be reading aloud several arguments taken from LAW 204, Written and Oral Advocacy, taught at the UC Berkeley Law School.
p109
sg101
Vnothing.jpg
p110
sg22
g26
sg102
(lp111
I20
aI20
asS'instr_data.thisTrialN'
p112
I0
sg27
g12
sg20
g21
sS'instr_data.thisN'
p113
I0
sS'instr_data.thisIndex'
p114
g23
(g75
S'\x00\x00\x00\x00'
tRp115
sa(dp116
g28
g29
sg30
g31
sS'instr_data.thisRepN'
p117
I0
sg100
VYou will read through student responses taken from the essay portion of the midterm exam. In order to give an objective analysis, you will be asked to read the essay responses aloud. In addition, sentences from each essay response will be presented phrase-by-phrase, not all at once.
p118
sg101
Vnothing.jpg
p119
sg22
g26
sg102
(lp120
I20
aI20
asS'instr_data.thisTrialN'
p121
I1
sg27
g12
sg20
g21
sS'instr_data.thisN'
p122
I1
sS'instr_data.thisIndex'
p123
g23
(g75
S'\x01\x00\x00\x00'
tRp124
sa(dp125
g28
g29
sg30
g31
sS'instr_data.thisRepN'
p126
I0
sg100
VHandwriting has been cropped and digitized into snippets like the one below, each of which contain individual phrases:
p127
sg101
Vwords\u005cexample.jpg
p128
sg22
g26
sg102
(lp129
I0
aI0
asS'instr_data.thisTrialN'
p130
I2
sg27
g12
sg20
g21
sS'instr_data.thisN'
p131
I2
sS'instr_data.thisIndex'
p132
g23
(g75
S'\x02\x00\x00\x00'
tRp133
sa(dp134
g28
g29
sg30
g31
sS'instr_data.thisRepN'
p135
I0
sg100
VThese snippets of text will appear on the screen for only one second each. When each phrase appears please read it out loud.
p136
sg101
Vnothing.jpg
p137
sg22
g26
sg102
(lp138
I20
aI20
asS'instr_data.thisTrialN'
p139
I3
sg27
g12
sg20
g21
sS'instr_data.thisN'
p140
I3
sS'instr_data.thisIndex'
p141
g23
(g75
S'\x03\x00\x00\x00'
tRp142
sa(dp143
g28
g29
sg30
g31
sS'instr_data.thisRepN'
p144
I0
sg100
VAfter you have read through each argument, you will be asked several questions about the complete argument. Please try to answer these questions as objectively as possible, as if you were a teaching assistant grading this exam.
p145
sg101
Vnothing.jpg
p146
sg22
g26
sg102
(lp147
I20
aI20
asS'instr_data.thisTrialN'
p148
I4
sg27
g12
sg20
g21
sS'instr_data.thisN'
p149
I4
sS'instr_data.thisIndex'
p150
g23
(g75
S'\x04\x00\x00\x00'
tRp151
sa(dp152
g28
g29
sg30
g31
sS'instr_data.thisRepN'
p153
I0
sg100
VAfter this slide you'll begin a practice session in order to familiarize yourself with how to evaluate these arguments. An experimenter will stand by to correct you if you make any mistakes. If you have any questions, please ask the experimenter now.
p154
sg101
Vnothing.jpg
p155
sg22
g26
sg102
(lp156
I20
aI20
asS'instr_data.thisTrialN'
p157
I5
sg27
g12
sg20
g21
sS'instr_data.thisN'
p158
I5
sS'instr_data.thisIndex'
p159
g23
(g75
S'\x05\x00\x00\x00'
tRp160
sa(dp161
g28
g29
sS'word_data.thisTrialN'
p162
I0
sg27
g12
sS'word_data.thisRepN'
p163
I0
sS'arguments_data.thisTrialN'
p164
I0
sg22
g26
sg43
g44
sS'arguments_data.thisIndex'
p165
g89
sS'word_data.thisIndex'
p166
g23
(g75
S'\x00\x00\x00\x00'
tRp167
sS'arguments_data.thisN'
p168
I0
sg103
V"words\u005carg2clean\u005c1.png"
p169
sg20
g21
sg30
g31
sS'word_data.thisN'
p170
I0
sS'arguments_data.thisRepN'
p171
I0
sa(dp172
g28
g29
sS'word_data.thisTrialN'
p173
I1
sg27
g12
sS'word_data.thisRepN'
p174
I0
sS'arguments_data.thisTrialN'
p175
I0
sg22
g26
sg43
g44
sS'arguments_data.thisIndex'
p176
g89
sS'word_data.thisIndex'
p177
g23
(g75
S'\x01\x00\x00\x00'
tRp178
sS'arguments_data.thisN'
p179
I0
sg103
V"words\u005carg2clean\u005c2.png"
p180
sg20
g21
sg30
g31
sS'word_data.thisN'
p181
I1
sS'arguments_data.thisRepN'
p182
I0
sa(dp183
g28
g29
sS'word_data.thisTrialN'
p184
I2
sg27
g12
sS'word_data.thisRepN'
p185
I0
sS'arguments_data.thisTrialN'
p186
I0
sg22
g26
sg43
g44
sS'arguments_data.thisIndex'
p187
g89
sS'word_data.thisIndex'
p188
g23
(g75
S'\x02\x00\x00\x00'
tRp189
sS'arguments_data.thisN'
p190
I0
sg103
V"words\u005carg2clean\u005c3.png"
p191
sg20
g21
sg30
g31
sS'word_data.thisN'
p192
I2
sS'arguments_data.thisRepN'
p193
I0
sa(dp194
g28
g29
sS'word_data.thisTrialN'
p195
I3
sg27
g12
sS'word_data.thisRepN'
p196
I0
sS'arguments_data.thisTrialN'
p197
I0
sg22
g26
sg43
g44
sS'arguments_data.thisIndex'
p198
g89
sS'word_data.thisIndex'
p199
g23
(g75
S'\x03\x00\x00\x00'
tRp200
sS'arguments_data.thisN'
p201
I0
sg103
V"words\u005carg2clean\u005c4.png"
p202
sg20
g21
sg30
g31
sS'word_data.thisN'
p203
I3
sS'arguments_data.thisRepN'
p204
I0
sa(dp205
g28
g29
sS'word_data.thisTrialN'
p206
I4
sg27
g12
sS'word_data.thisRepN'
p207
I0
sS'arguments_data.thisTrialN'
p208
I0
sg22
g26
sg43
g44
sS'arguments_data.thisIndex'
p209
g89
sS'word_data.thisIndex'
p210
g23
(g75
S'\x04\x00\x00\x00'
tRp211
sS'arguments_data.thisN'
p212
I0
sg103
V"words\u005carg2clean\u005c5.png"
p213
sg20
g21
sg30
g31
sS'word_data.thisN'
p214
I4
sS'arguments_data.thisRepN'
p215
I0
sa(dp216
g28
g29
sS'word_data.thisTrialN'
p217
I5
sg27
g12
sS'word_data.thisRepN'
p218
I0
sS'arguments_data.thisTrialN'
p219
I0
sg22
g26
sg43
g44
sS'arguments_data.thisIndex'
p220
g89
sS'word_data.thisIndex'
p221
g23
(g75
S'\x05\x00\x00\x00'
tRp222
sS'arguments_data.thisN'
p223
I0
sg103
V"words\u005carg2clean\u005c6.png"
p224
sg20
g21
sg30
g31
sS'word_data.thisN'
p225
I5
sS'arguments_data.thisRepN'
p226
I0
sa(dp227
g28
g29
sS'word_data.thisTrialN'
p228
I6
sg27
g12
sS'word_data.thisRepN'
p229
I0
sS'arguments_data.thisTrialN'
p230
I0
sg22
g26
sg43
g44
sS'arguments_data.thisIndex'
p231
g89
sS'word_data.thisIndex'
p232
g23
(g75
S'\x06\x00\x00\x00'
tRp233
sS'arguments_data.thisN'
p234
I0
sg103
V"words\u005carg2clean\u005c7.png"
p235
sg20
g21
sg30
g31
sS'word_data.thisN'
p236
I6
sS'arguments_data.thisRepN'
p237
I0
sa(dp238
g28
g29
sS'word_data.thisTrialN'
p239
I7
sg27
g12
sS'word_data.thisRepN'
p240
I0
sS'arguments_data.thisTrialN'
p241
I0
sg22
g26
sg43
g44
sS'arguments_data.thisIndex'
p242
g89
sS'word_data.thisIndex'
p243
g23
(g75
S'\x07\x00\x00\x00'
tRp244
sS'arguments_data.thisN'
p245
I0
sg103
V"words\u005carg2clean\u005c8.png"
p246
sg20
g21
sg30
g31
sS'word_data.thisN'
p247
I7
sS'arguments_data.thisRepN'
p248
I0
sa(dp249
g28
g29
sS'word_data.thisTrialN'
p250
I8
sg27
g12
sS'word_data.thisRepN'
p251
I0
sS'arguments_data.thisTrialN'
p252
I0
sg22
g26
sg43
g44
sS'arguments_data.thisIndex'
p253
g89
sS'word_data.thisIndex'
p254
g23
(g75
S'\x08\x00\x00\x00'
tRp255
sS'arguments_data.thisN'
p256
I0
sg103
V"words\u005carg2clean\u005c9.png"
p257
sg20
g21
sg30
g31
sS'word_data.thisN'
p258
I8
sS'arguments_data.thisRepN'
p259
I0
sa(dp260
g28
g29
sS'word_data.thisTrialN'
p261
I9
sg27
g12
sS'word_data.thisRepN'
p262
I0
sS'arguments_data.thisTrialN'
p263
I0
sg22
g26
sg43
g44
sS'arguments_data.thisIndex'
p264
g89
sS'word_data.thisIndex'
p265
g23
(g75
S'\t\x00\x00\x00'
tRp266
sS'arguments_data.thisN'
p267
I0
sg103
V"words\u005carg2clean\u005c10.png"
p268
sg20
g21
sg30
g31
sS'word_data.thisN'
p269
I9
sS'arguments_data.thisRepN'
p270
I0
sa(dp271
g28
g29
sS'word_data.thisTrialN'
p272
I10
sg27
g12
sS'word_data.thisRepN'
p273
I0
sS'arguments_data.thisTrialN'
p274
I0
sg22
g26
sg43
g44
sS'arguments_data.thisIndex'
p275
g89
sS'word_data.thisIndex'
p276
g23
(g75
S'\n\x00\x00\x00'
tRp277
sS'arguments_data.thisN'
p278
I0
sg103
V"words\u005carg2clean\u005c11.png"
p279
sg20
g21
sg30
g31
sS'word_data.thisN'
p280
I10
sS'arguments_data.thisRepN'
p281
I0
sa(dp282
g28
g29
sS'word_data.thisTrialN'
p283
I11
sg27
g12
sS'word_data.thisRepN'
p284
I0
sS'arguments_data.thisTrialN'
p285
I0
sg22
g26
sg43
g44
sS'arguments_data.thisIndex'
p286
g89
sS'word_data.thisIndex'
p287
g23
(g75
S'\x0b\x00\x00\x00'
tRp288
sS'arguments_data.thisN'
p289
I0
sg103
V"words\u005carg2clean\u005c12.png"
p290
sg20
g21
sg30
g31
sS'word_data.thisN'
p291
I11
sS'arguments_data.thisRepN'
p292
I0
sa(dp293
g28
g29
sS'word_data.thisTrialN'
p294
I12
sg27
g12
sS'word_data.thisRepN'
p295
I0
sS'arguments_data.thisTrialN'
p296
I0
sg22
g26
sg43
g44
sS'arguments_data.thisIndex'
p297
g89
sS'word_data.thisIndex'
p298
g23
(g75
S'\x0c\x00\x00\x00'
tRp299
sS'arguments_data.thisN'
p300
I0
sg103
V"words\u005carg2clean\u005c13.png"
p301
sg20
g21
sg30
g31
sS'word_data.thisN'
p302
I12
sS'arguments_data.thisRepN'
p303
I0
sa(dp304
g28
g29
sS'word_data.thisTrialN'
p305
I13
sg27
g12
sS'word_data.thisRepN'
p306
I0
sS'arguments_data.thisTrialN'
p307
I0
sg22
g26
sg43
g44
sS'arguments_data.thisIndex'
p308
g89
sS'word_data.thisIndex'
p309
g23
(g75
S'\r\x00\x00\x00'
tRp310
sS'arguments_data.thisN'
p311
I0
sg103
V"words\u005carg2clean\u005c14.png"
p312
sg20
g21
sg30
g31
sS'word_data.thisN'
p313
I13
sS'arguments_data.thisRepN'
p314
I0
sa(dp315
g28
g29
sS'word_data.thisTrialN'
p316
I14
sg27
g12
sS'word_data.thisRepN'
p317
I0
sS'arguments_data.thisTrialN'
p318
I0
sg22
g26
sg43
g44
sS'arguments_data.thisIndex'
p319
g89
sS'word_data.thisIndex'
p320
g23
(g75
S'\x0e\x00\x00\x00'
tRp321
sS'arguments_data.thisN'
p322
I0
sg103
V"words\u005carg2clean\u005c15.png"
p323
sg20
g21
sg30
g31
sS'word_data.thisN'
p324
I14
sS'arguments_data.thisRepN'
p325
I0
sa(dp326
g28
g29
sS'word_data.thisTrialN'
p327
I15
sg27
g12
sS'word_data.thisRepN'
p328
I0
sS'arguments_data.thisTrialN'
p329
I0
sg22
g26
sg43
g44
sS'arguments_data.thisIndex'
p330
g89
sS'word_data.thisIndex'
p331
g23
(g75
S'\x0f\x00\x00\x00'
tRp332
sS'arguments_data.thisN'
p333
I0
sg103
V"words\u005carg2clean\u005c16.png"
p334
sg20
g21
sg30
g31
sS'word_data.thisN'
p335
I15
sS'arguments_data.thisRepN'
p336
I0
sa(dp337
g28
g29
sS'word_data.thisTrialN'
p338
I16
sg27
g12
sS'word_data.thisRepN'
p339
I0
sS'arguments_data.thisTrialN'
p340
I0
sg22
g26
sg43
g44
sS'arguments_data.thisIndex'
p341
g89
sS'word_data.thisIndex'
p342
g23
(g75
S'\x10\x00\x00\x00'
tRp343
sS'arguments_data.thisN'
p344
I0
sg103
V"words\u005carg2clean\u005c17.png"
p345
sg20
g21
sg30
g31
sS'word_data.thisN'
p346
I16
sS'arguments_data.thisRepN'
p347
I0
sa(dp348
g28
g29
sS'word_data.thisTrialN'
p349
I17
sg27
g12
sS'word_data.thisRepN'
p350
I0
sS'arguments_data.thisTrialN'
p351
I0
sg22
g26
sg43
g44
sS'arguments_data.thisIndex'
p352
g89
sS'word_data.thisIndex'
p353
g23
(g75
S'\x11\x00\x00\x00'
tRp354
sS'arguments_data.thisN'
p355
I0
sg103
V"words\u005carg2clean\u005c18.png"
p356
sg20
g21
sg30
g31
sS'word_data.thisN'
p357
I17
sS'arguments_data.thisRepN'
p358
I0
sa(dp359
g28
g29
sS'word_data.thisTrialN'
p360
I18
sg27
g12
sS'word_data.thisRepN'
p361
I0
sS'arguments_data.thisTrialN'
p362
I0
sg22
g26
sg43
g44
sS'arguments_data.thisIndex'
p363
g89
sS'word_data.thisIndex'
p364
g23
(g75
S'\x12\x00\x00\x00'
tRp365
sS'arguments_data.thisN'
p366
I0
sg103
V"words\u005carg2clean\u005c19.png"
p367
sg20
g21
sg30
g31
sS'word_data.thisN'
p368
I18
sS'arguments_data.thisRepN'
p369
I0
sa(dp370
g28
g29
sS'word_data.thisTrialN'
p371
I19
sg27
g12
sS'word_data.thisRepN'
p372
I0
sS'arguments_data.thisTrialN'
p373
I0
sg22
g26
sg43
g44
sS'arguments_data.thisIndex'
p374
g89
sS'word_data.thisIndex'
p375
g23
(g75
S'\x13\x00\x00\x00'
tRp376
sS'arguments_data.thisN'
p377
I0
sg103
V"words\u005carg2clean\u005c20.png"
p378
sg20
g21
sg30
g31
sS'word_data.thisN'
p379
I19
sS'arguments_data.thisRepN'
p380
I0
sa(dp381
g28
g29
sS'word_data.thisTrialN'
p382
I20
sg27
g12
sS'word_data.thisRepN'
p383
I0
sS'arguments_data.thisTrialN'
p384
I0
sg22
g26
sg43
g44
sS'arguments_data.thisIndex'
p385
g89
sS'word_data.thisIndex'
p386
g23
(g75
S'\x14\x00\x00\x00'
tRp387
sS'arguments_data.thisN'
p388
I0
sg103
V"words\u005carg2clean\u005c21.png"
p389
sg20
g21
sg30
g31
sS'word_data.thisN'
p390
I20
sS'arguments_data.thisRepN'
p391
I0
sa(dp392
g28
g29
sS'word_data.thisTrialN'
p393
I21
sg27
g12
sS'word_data.thisRepN'
p394
I0
sS'arguments_data.thisTrialN'
p395
I0
sg22
g26
sg43
g44
sS'arguments_data.thisIndex'
p396
g89
sS'word_data.thisIndex'
p397
g23
(g75
S'\x15\x00\x00\x00'
tRp398
sS'arguments_data.thisN'
p399
I0
sg103
V"words\u005carg2clean\u005c22.png"
p400
sg20
g21
sg30
g31
sS'word_data.thisN'
p401
I21
sS'arguments_data.thisRepN'
p402
I0
sa(dp403
g28
g29
sS'word_data.thisTrialN'
p404
I22
sg27
g12
sS'word_data.thisRepN'
p405
I0
sS'arguments_data.thisTrialN'
p406
I0
sg22
g26
sg43
g44
sS'arguments_data.thisIndex'
p407
g89
sS'word_data.thisIndex'
p408
g23
(g75
S'\x16\x00\x00\x00'
tRp409
sS'arguments_data.thisN'
p410
I0
sg103
V"words\u005carg2clean\u005c23.png"
p411
sg20
g21
sg30
g31
sS'word_data.thisN'
p412
I22
sS'arguments_data.thisRepN'
p413
I0
sa(dp414
g28
g29
sS'word_data.thisTrialN'
p415
I23
sg27
g12
sS'word_data.thisRepN'
p416
I0
sS'arguments_data.thisTrialN'
p417
I0
sg22
g26
sg43
g44
sS'arguments_data.thisIndex'
p418
g89
sS'word_data.thisIndex'
p419
g23
(g75
S'\x17\x00\x00\x00'
tRp420
sS'arguments_data.thisN'
p421
I0
sg103
V"words\u005carg2clean\u005c24.png"
p422
sg20
g21
sg30
g31
sS'word_data.thisN'
p423
I23
sS'arguments_data.thisRepN'
p424
I0
sa(dp425
g28
g29
sS'word_data.thisTrialN'
p426
I24
sg27
g12
sS'word_data.thisRepN'
p427
I0
sS'arguments_data.thisTrialN'
p428
I0
sg22
g26
sg43
g44
sS'arguments_data.thisIndex'
p429
g89
sS'word_data.thisIndex'
p430
g23
(g75
S'\x18\x00\x00\x00'
tRp431
sS'arguments_data.thisN'
p432
I0
sg103
V"words\u005carg2clean\u005c25.png"
p433
sg20
g21
sg30
g31
sS'word_data.thisN'
p434
I24
sS'arguments_data.thisRepN'
p435
I0
sa(dp436
g28
g29
sS'word_data.thisTrialN'
p437
I25
sg27
g12
sS'word_data.thisRepN'
p438
I0
sS'arguments_data.thisTrialN'
p439
I0
sg22
g26
sg43
g44
sS'arguments_data.thisIndex'
p440
g89
sS'word_data.thisIndex'
p441
g23
(g75
S'\x19\x00\x00\x00'
tRp442
sS'arguments_data.thisN'
p443
I0
sg103
V"words\u005carg2clean\u005c26.png"
p444
sg20
g21
sg30
g31
sS'word_data.thisN'
p445
I25
sS'arguments_data.thisRepN'
p446
I0
sa(dp447
g28
g29
sS'word_data.thisTrialN'
p448
I26
sg27
g12
sS'word_data.thisRepN'
p449
I0
sS'arguments_data.thisTrialN'
p450
I0
sg22
g26
sg43
g44
sS'arguments_data.thisIndex'
p451
g89
sS'word_data.thisIndex'
p452
g23
(g75
S'\x1a\x00\x00\x00'
tRp453
sS'arguments_data.thisN'
p454
I0
sg103
V"words\u005carg2clean\u005c27.png"
p455
sg20
g21
sg30
g31
sS'word_data.thisN'
p456
I26
sS'arguments_data.thisRepN'
p457
I0
sa(dp458
g28
g29
sS'word_data.thisTrialN'
p459
I27
sg27
g12
sS'word_data.thisRepN'
p460
I0
sS'arguments_data.thisTrialN'
p461
I0
sg22
g26
sg43
g44
sS'arguments_data.thisIndex'
p462
g89
sS'word_data.thisIndex'
p463
g23
(g75
S'\x1b\x00\x00\x00'
tRp464
sS'arguments_data.thisN'
p465
I0
sg103
V"words\u005carg2clean\u005c28.png"
p466
sg20
g21
sg30
g31
sS'word_data.thisN'
p467
I27
sS'arguments_data.thisRepN'
p468
I0
sa(dp469
g28
g29
sS'word_data.thisTrialN'
p470
I28
sg27
g12
sS'word_data.thisRepN'
p471
I0
sS'arguments_data.thisTrialN'
p472
I0
sg22
g26
sg43
g44
sS'arguments_data.thisIndex'
p473
g89
sS'word_data.thisIndex'
p474
g23
(g75
S'\x1c\x00\x00\x00'
tRp475
sS'arguments_data.thisN'
p476
I0
sg103
V"words\u005carg2clean\u005c29.png"
p477
sg20
g21
sg30
g31
sS'word_data.thisN'
p478
I28
sS'arguments_data.thisRepN'
p479
I0
sa(dp480
g28
g29
sS'word_data.thisTrialN'
p481
I29
sg27
g12
sS'word_data.thisRepN'
p482
I0
sS'arguments_data.thisTrialN'
p483
I0
sg22
g26
sg43
g44
sS'arguments_data.thisIndex'
p484
g89
sS'word_data.thisIndex'
p485
g23
(g75
S'\x1d\x00\x00\x00'
tRp486
sS'arguments_data.thisN'
p487
I0
sg103
V"words\u005carg2clean\u005c30.png"
p488
sg20
g21
sg30
g31
sS'word_data.thisN'
p489
I29
sS'arguments_data.thisRepN'
p490
I0
sa(dp491
g28
g29
sS'word_data.thisTrialN'
p492
I30
sg27
g12
sS'word_data.thisRepN'
p493
I0
sS'arguments_data.thisTrialN'
p494
I0
sg22
g26
sg43
g44
sS'arguments_data.thisIndex'
p495
g89
sS'word_data.thisIndex'
p496
g23
(g75
S'\x1e\x00\x00\x00'
tRp497
sS'arguments_data.thisN'
p498
I0
sg103
V"words\u005carg2clean\u005c31.png"
p499
sg20
g21
sg30
g31
sS'word_data.thisN'
p500
I30
sS'arguments_data.thisRepN'
p501
I0
sa(dp502
g28
g29
sS'word_data.thisTrialN'
p503
I31
sg27
g12
sS'word_data.thisRepN'
p504
I0
sS'arguments_data.thisTrialN'
p505
I0
sg22
g26
sg43
g44
sS'arguments_data.thisIndex'
p506
g89
sS'word_data.thisIndex'
p507
g23
(g75
S'\x1f\x00\x00\x00'
tRp508
sS'arguments_data.thisN'
p509
I0
sg103
V"words\u005carg2clean\u005c32.png"
p510
sg20
g21
sg30
g31
sS'word_data.thisN'
p511
I31
sS'arguments_data.thisRepN'
p512
I0
sa(dp513
g28
g29
sS'word_data.thisTrialN'
p514
I32
sg27
g12
sS'word_data.thisRepN'
p515
I0
sS'arguments_data.thisTrialN'
p516
I0
sg22
g26
sg43
g44
sS'arguments_data.thisIndex'
p517
g89
sS'word_data.thisIndex'
p518
g23
(g75
S' \x00\x00\x00'
tRp519
sS'arguments_data.thisN'
p520
I0
sg103
V"words\u005carg2clean\u005c33.png"
p521
sg20
g21
sg30
g31
sS'word_data.thisN'
p522
I32
sS'arguments_data.thisRepN'
p523
I0
sa(dp524
g28
g29
sS'word_data.thisTrialN'
p525
I33
sg27
g12
sS'word_data.thisRepN'
p526
I0
sS'arguments_data.thisTrialN'
p527
I0
sg22
g26
sg43
g44
sS'arguments_data.thisIndex'
p528
g89
sS'word_data.thisIndex'
p529
g23
(g75
S'!\x00\x00\x00'
tRp530
sS'arguments_data.thisN'
p531
I0
sg103
V"words\u005carg2clean\u005c34.png"
p532
sg20
g21
sg30
g31
sS'word_data.thisN'
p533
I33
sS'arguments_data.thisRepN'
p534
I0
sa(dp535
g28
g29
sS'word_data.thisTrialN'
p536
I34
sg27
g12
sS'word_data.thisRepN'
p537
I0
sS'arguments_data.thisTrialN'
p538
I0
sg22
g26
sg43
g44
sS'arguments_data.thisIndex'
p539
g89
sS'word_data.thisIndex'
p540
g23
(g75
S'"\x00\x00\x00'
tRp541
sS'arguments_data.thisN'
p542
I0
sg103
V"words\u005carg2clean\u005c35.png"
p543
sg20
g21
sg30
g31
sS'word_data.thisN'
p544
I34
sS'arguments_data.thisRepN'
p545
I0
sa(dp546
g28
g29
sS'word_data.thisTrialN'
p547
I35
sg27
g12
sS'word_data.thisRepN'
p548
I0
sS'arguments_data.thisTrialN'
p549
I0
sg22
g26
sg43
g44
sS'arguments_data.thisIndex'
p550
g89
sS'word_data.thisIndex'
p551
g23
(g75
S'#\x00\x00\x00'
tRp552
sS'arguments_data.thisN'
p553
I0
sg103
V"words\u005carg2clean\u005c36.png"
p554
sg20
g21
sg30
g31
sS'word_data.thisN'
p555
I35
sS'arguments_data.thisRepN'
p556
I0
sa(dp557
g28
g29
sS'word_data.thisTrialN'
p558
I36
sg27
g12
sS'word_data.thisRepN'
p559
I0
sS'arguments_data.thisTrialN'
p560
I0
sg22
g26
sg43
g44
sS'arguments_data.thisIndex'
p561
g89
sS'word_data.thisIndex'
p562
g23
(g75
S'$\x00\x00\x00'
tRp563
sS'arguments_data.thisN'
p564
I0
sg103
V"words\u005carg2clean\u005c37.png"
p565
sg20
g21
sg30
g31
sS'word_data.thisN'
p566
I36
sS'arguments_data.thisRepN'
p567
I0
sa(dp568
g28
g29
sS'word_data.thisTrialN'
p569
I37
sg27
g12
sS'word_data.thisRepN'
p570
I0
sS'arguments_data.thisTrialN'
p571
I0
sg22
g26
sg43
g44
sS'arguments_data.thisIndex'
p572
g89
sS'word_data.thisIndex'
p573
g23
(g75
S'%\x00\x00\x00'
tRp574
sS'arguments_data.thisN'
p575
I0
sg103
V"words\u005carg2clean\u005c38.png"
p576
sg20
g21
sg30
g31
sS'word_data.thisN'
p577
I37
sS'arguments_data.thisRepN'
p578
I0
sa(dp579
g28
g29
sS'word_data.thisTrialN'
p580
I38
sg27
g12
sS'word_data.thisRepN'
p581
I0
sS'arguments_data.thisTrialN'
p582
I0
sg22
g26
sg43
g44
sS'arguments_data.thisIndex'
p583
g89
sS'word_data.thisIndex'
p584
g23
(g75
S'&\x00\x00\x00'
tRp585
sS'arguments_data.thisN'
p586
I0
sg103
V"words\u005carg2clean\u005c39.png"
p587
sg20
g21
sg30
g31
sS'word_data.thisN'
p588
I38
sS'arguments_data.thisRepN'
p589
I0
sa(dp590
g28
g29
sS'word_data.thisTrialN'
p591
I39
sg27
g12
sS'word_data.thisRepN'
p592
I0
sS'arguments_data.thisTrialN'
p593
I0
sg22
g26
sg43
g44
sS'arguments_data.thisIndex'
p594
g89
sS'word_data.thisIndex'
p595
g23
(g75
S"'\x00\x00\x00"
tRp596
sS'arguments_data.thisN'
p597
I0
sg103
V"words\u005carg2clean\u005c40.png"
p598
sg20
g21
sg30
g31
sS'word_data.thisN'
p599
I39
sS'arguments_data.thisRepN'
p600
I0
sa(dp601
g28
g29
sS'word_data.thisTrialN'
p602
I40
sg27
g12
sS'word_data.thisRepN'
p603
I0
sS'arguments_data.thisTrialN'
p604
I0
sg22
g26
sg43
g44
sS'arguments_data.thisIndex'
p605
g89
sS'word_data.thisIndex'
p606
g23
(g75
S'(\x00\x00\x00'
tRp607
sS'arguments_data.thisN'
p608
I0
sg103
V"words\u005carg2clean\u005c41.png"
p609
sg20
g21
sg30
g31
sS'word_data.thisN'
p610
I40
sS'arguments_data.thisRepN'
p611
I0
sa(dp612
g28
g29
sS'word_data.thisTrialN'
p613
I41
sg27
g12
sS'word_data.thisRepN'
p614
I0
sS'arguments_data.thisTrialN'
p615
I0
sg22
g26
sg43
g44
sS'arguments_data.thisIndex'
p616
g89
sS'word_data.thisIndex'
p617
g23
(g75
S')\x00\x00\x00'
tRp618
sS'arguments_data.thisN'
p619
I0
sg103
V"words\u005carg2clean\u005c42.png"
p620
sg20
g21
sg30
g31
sS'word_data.thisN'
p621
I41
sS'arguments_data.thisRepN'
p622
I0
sa(dp623
g28
g29
sS'word_data.thisTrialN'
p624
I42
sg27
g12
sS'word_data.thisRepN'
p625
I0
sS'arguments_data.thisTrialN'
p626
I0
sg22
g26
sg43
g44
sS'arguments_data.thisIndex'
p627
g89
sS'word_data.thisIndex'
p628
g23
(g75
S'*\x00\x00\x00'
tRp629
sS'arguments_data.thisN'
p630
I0
sg103
V"words\u005carg2clean\u005c43.png"
p631
sg20
g21
sg30
g31
sS'word_data.thisN'
p632
I42
sS'arguments_data.thisRepN'
p633
I0
sa(dp634
g28
g29
sS'word_data.thisTrialN'
p635
I43
sg27
g12
sS'word_data.thisRepN'
p636
I0
sS'arguments_data.thisTrialN'
p637
I0
sg22
g26
sg43
g44
sS'arguments_data.thisIndex'
p638
g89
sS'word_data.thisIndex'
p639
g23
(g75
S'+\x00\x00\x00'
tRp640
sS'arguments_data.thisN'
p641
I0
sg103
V"words\u005carg2clean\u005c44.png"
p642
sg20
g21
sg30
g31
sS'word_data.thisN'
p643
I43
sS'arguments_data.thisRepN'
p644
I0
sa(dp645
g28
g29
sS'word_data.thisTrialN'
p646
I44
sg27
g12
sS'word_data.thisRepN'
p647
I0
sS'arguments_data.thisTrialN'
p648
I0
sg22
g26
sg43
g44
sS'arguments_data.thisIndex'
p649
g89
sS'word_data.thisIndex'
p650
g23
(g75
S',\x00\x00\x00'
tRp651
sS'arguments_data.thisN'
p652
I0
sg103
V"words\u005carg2clean\u005c45.png"
p653
sg20
g21
sg30
g31
sS'word_data.thisN'
p654
I44
sS'arguments_data.thisRepN'
p655
I0
sa(dp656
g28
g29
sS'word_data.thisTrialN'
p657
I45
sg27
g12
sS'word_data.thisRepN'
p658
I0
sS'arguments_data.thisTrialN'
p659
I0
sg22
g26
sg43
g44
sS'arguments_data.thisIndex'
p660
g89
sS'word_data.thisIndex'
p661
g23
(g75
S'-\x00\x00\x00'
tRp662
sS'arguments_data.thisN'
p663
I0
sg103
V"words\u005carg2clean\u005c46.png"
p664
sg20
g21
sg30
g31
sS'word_data.thisN'
p665
I45
sS'arguments_data.thisRepN'
p666
I0
sa(dp667
g28
g29
sS'word_data.thisTrialN'
p668
I46
sg27
g12
sS'word_data.thisRepN'
p669
I0
sS'arguments_data.thisTrialN'
p670
I0
sg22
g26
sg43
g44
sS'arguments_data.thisIndex'
p671
g89
sS'word_data.thisIndex'
p672
g23
(g75
S'.\x00\x00\x00'
tRp673
sS'arguments_data.thisN'
p674
I0
sg103
V"words\u005carg2clean\u005c47.png"
p675
sg20
g21
sg30
g31
sS'word_data.thisN'
p676
I46
sS'arguments_data.thisRepN'
p677
I0
sa(dp678
g28
g29
sS'word_data.thisTrialN'
p679
I47
sg27
g12
sS'word_data.thisRepN'
p680
I0
sS'arguments_data.thisTrialN'
p681
I0
sg22
g26
sg43
g44
sS'arguments_data.thisIndex'
p682
g89
sS'word_data.thisIndex'
p683
g23
(g75
S'/\x00\x00\x00'
tRp684
sS'arguments_data.thisN'
p685
I0
sg103
V"words\u005carg2clean\u005c48.png"
p686
sg20
g21
sg30
g31
sS'word_data.thisN'
p687
I47
sS'arguments_data.thisRepN'
p688
I0
sa(dp689
g28
g29
sS'word_data.thisTrialN'
p690
I48
sg27
g12
sS'word_data.thisRepN'
p691
I0
sS'arguments_data.thisTrialN'
p692
I0
sg22
g26
sg43
g44
sS'arguments_data.thisIndex'
p693
g89
sS'word_data.thisIndex'
p694
g23
(g75
S'0\x00\x00\x00'
tRp695
sS'arguments_data.thisN'
p696
I0
sg103
V"words\u005carg2clean\u005c49.png"
p697
sg20
g21
sg30
g31
sS'word_data.thisN'
p698
I48
sS'arguments_data.thisRepN'
p699
I0
sa(dp700
g28
g29
sS'questions.thisTrialN'
p701
I0
sg27
g12
sS'questions.thisRepN'
p702
I0
sS'arguments_data.thisTrialN'
p703
I0
sg22
g26
sg104
V"This argument was convincing."
p704
sS'arguments_data.thisIndex'
p705
g89
sg43
g44
sg15
S'9'
sS'questions.thisIndex'
p706
g23
(g75
S'\x00\x00\x00\x00'
tRp707
sS'arguments_data.thisN'
p708
I0
sg16
F2.1754363183863461
sg20
g21
sg30
g31
sS'questions.thisN'
p709
I0
sS'arguments_data.thisRepN'
p710
I0
sa(dp711
g28
g29
sS'questions.thisTrialN'
p712
I1
sg27
g12
sS'questions.thisRepN'
p713
I0
sS'arguments_data.thisTrialN'
p714
I0
sg22
g26
sg104
V"There were logical flaws in this argument."
p715
sS'arguments_data.thisIndex'
p716
g89
sg43
g44
sg15
S'9'
sS'questions.thisIndex'
p717
g23
(g75
S'\x01\x00\x00\x00'
tRp718
sS'arguments_data.thisN'
p719
I0
sg16
F0.36153774085687473
sg20
g21
sg30
g31
sS'questions.thisN'
p720
I1
sS'arguments_data.thisRepN'
p721
I0
sa(dp722
g28
g29
sS'questions.thisTrialN'
p723
I2
sg27
g12
sS'questions.thisRepN'
p724
I0
sS'arguments_data.thisTrialN'
p725
I0
sg22
g26
sg104
V"This argument might be wrong but it was well argued nonetheless."
p726
sS'arguments_data.thisIndex'
p727
g89
sg43
g44
sg15
S'7'
sS'questions.thisIndex'
p728
g23
(g75
S'\x03\x00\x00\x00'
tRp729
sS'arguments_data.thisN'
p730
I0
sg16
F0.34283785294974223
sg20
g21
sg30
g31
sS'questions.thisN'
p731
I2
sS'arguments_data.thisRepN'
p732
I0
sa(dp733
g28
g29
sS'questions.thisTrialN'
p734
I3
sg27
g12
sS'questions.thisRepN'
p735
I0
sS'arguments_data.thisTrialN'
p736
I0
sg22
g26
sg104
V"This was a well formed argument."
p737
sS'arguments_data.thisIndex'
p738
g89
sg43
g44
sg15
S'4'
sS'questions.thisIndex'
p739
g23
(g75
S'\x02\x00\x00\x00'
tRp740
sS'arguments_data.thisN'
p741
I0
sg16
F0.32275233155814931
sg20
g21
sg30
g31
sS'questions.thisN'
p742
I3
sS'arguments_data.thisRepN'
p743
I0
sa(dp744
g28
g29
sS'questions.thisTrialN'
p745
I4
sg27
g12
sS'questions.thisRepN'
p746
I0
sS'arguments_data.thisTrialN'
p747
I0
sg22
g26
sg104
V"This argument was unconvincing."
p748
sS'arguments_data.thisIndex'
p749
g89
sg43
g44
sg15
S'9'
sS'questions.thisIndex'
p750
g23
(g75
S'\x04\x00\x00\x00'
tRp751
sS'arguments_data.thisN'
p752
I0
sg16
F0.34426827705465257
sg20
g21
sg30
g31
sS'questions.thisN'
p753
I4
sS'arguments_data.thisRepN'
p754
I0
sasS'loops'
p755
(lp756
g1
(g34
g3
NtRp757
(dp758
g37
V<PsychoPy2experiment version="1.80.06" encoding="utf-8">\u000a  <Settings>\u000a    <Param name="Show mouse" val="False" valType="bool" updates="None"/>\u000a    <Param name="Data filename" val="'data/%s_%s_%s' %(expInfo['participant'], expName, expInfo['date'])" valType="code" updates="None"/>\u000a    <Param name="Monitor" val="testMonitor" valType="str" updates="None"/>\u000a    <Param name="Enable Escape" val="True" valType="bool" updates="None"/>\u000a    <Param name="color" val="$[0,0,0]" valType="str" updates="None"/>\u000a    <Param name="Window size (pixels)" val="[1024, 768]" valType="code" updates="None"/>\u000a    <Param name="Full-screen window" val="True" valType="bool" updates="None"/>\u000a    <Param name="colorSpace" val="rgb" valType="str" updates="None"/>\u000a    <Param name="Experiment info" val="{'participant':'', 'session':'001'}" valType="code" updates="None"/>\u000a    <Param name="Save csv file" val="False" valType="bool" updates="None"/>\u000a    <Param name="Show info dlg" val="True" valType="bool" updates="None"/>\u000a    <Param name="Save wide csv file" val="True" valType="bool" updates="None"/>\u000a    <Param name="Save psydat file" val="True" valType="bool" updates="None"/>\u000a    <Param name="expName" val="Arguments" valType="str" updates="None"/>\u000a    <Param name="logging level" val="exp" valType="code" updates="None"/>\u000a    <Param name="blendMode" val="avg" valType="str" updates="None"/>\u000a    <Param name="Save excel file" val="False" valType="bool" updates="None"/>\u000a    <Param name="Units" val="use prefs" valType="str" updates="None"/>\u000a    <Param name="Save log file" val="True" valType="bool" updates="None"/>\u000a    <Param name="Screen" val="1" valType="num" updates="None"/>\u000a  </Settings>\u000a  <Routines>\u000a    <Routine name="code2">\u000a      <CodeComponent name="read_CSV2">\u000a        <Param name="Begin Experiment" val="" valType="extendedCode" updates="constant"/>\u000a        <Param name="name" val="read_CSV2" valType="code" updates="None"/>\u000a        <Param name="Each Frame" val="" valType="extendedCode" updates="constant"/>\u000a        <Param name="Begin Routine" val="words = words.replace('&quot;','')" valType="extendedCode" updates="constant"/>\u000a        <Param name="End Routine" val="" valType="extendedCode" updates="constant"/>\u000a        <Param name="End Experiment" val="" valType="extendedCode" updates="constant"/>\u000a      </CodeComponent>\u000a    </Routine>\u000a    <Routine name="code">\u000a      <CodeComponent name="read_CSV">\u000a        <Param name="Begin Experiment" val="" valType="extendedCode" updates="constant"/>\u000a        <Param name="name" val="read_CSV" valType="code" updates="None"/>\u000a        <Param name="Each Frame" val="" valType="extendedCode" updates="constant"/>\u000a        <Param name="Begin Routine" val="argument = argument.replace('&quot;', '')" valType="extendedCode" updates="constant"/>\u000a        <Param name="End Routine" val="" valType="extendedCode" updates="constant"/>\u000a        <Param name="End Experiment" val="" valType="extendedCode" updates="constant"/>\u000a      </CodeComponent>\u000a    </Routine>\u000a    <Routine name="end">\u000a      <TextComponent name="End">\u000a        <Param name="opacity" val="1" valType="code" updates="constant"/>\u000a        <Param name="colorSpace" val="rgb" valType="str" updates="constant"/>\u000a        <Param name="name" val="End" valType="code" updates="None"/>\u000a        <Param name="wrapWidth" val="35" valType="code" updates="constant"/>\u000a        <Param name="color" val="white" valType="str" updates="constant"/>\u000a        <Param name="text" val="Thanks for participating!&#10;&#10;Please turn around and tell the experimenter that you have finished!" valType="str" updates="constant"/>\u000a        <Param name="stopVal" val="5" valType="code" updates="constant"/>\u000a        <Param name="durationEstim" val="" valType="code" updates="None"/>\u000a        <Param name="pos" val="[0, 0]" valType="code" updates="constant"/>\u000a        <Param name="flip" val="" valType="str" updates="constant"/>\u000a        <Param name="startEstim" val="" valType="code" updates="None"/>\u000a        <Param name="units" val="cm" valType="str" updates="None"/>\u000a        <Param name="startType" val="time (s)" valType="str" updates="None"/>\u000a        <Param name="ori" val="0" valType="code" updates="constant"/>\u000a        <Param name="stopType" val="duration (s)" valType="str" updates="None"/>\u000a        <Param name="startVal" val="0.0" valType="code" updates="None"/>\u000a        <Param name="font" val="Arial" valType="str" updates="constant"/>\u000a        <Param name="letterHeight" val="1" valType="code" updates="constant"/>\u000a      </TextComponent>\u000a    </Routine>\u000a    <Routine name="next_arg">\u000a      <TextComponent name="text_3">\u000a        <Param name="opacity" val="1" valType="code" updates="constant"/>\u000a        <Param name="colorSpace" val="rgb" valType="str" updates="constant"/>\u000a        <Param name="name" val="text_3" valType="code" updates="None"/>\u000a        <Param name="wrapWidth" val="" valType="code" updates="constant"/>\u000a        <Param name="color" val="white" valType="str" updates="constant"/>\u000a        <Param name="text" val="Press SPACE when you are ready to read the next argument." valType="str" updates="constant"/>\u000a        <Param name="stopVal" val="" valType="code" updates="constant"/>\u000a        <Param name="durationEstim" val="" valType="code" updates="None"/>\u000a        <Param name="pos" val="[0, 0]" valType="code" updates="constant"/>\u000a        <Param name="flip" val="" valType="str" updates="constant"/>\u000a        <Param name="startEstim" val="" valType="code" updates="None"/>\u000a        <Param name="units" val="from exp settings" valType="str" updates="None"/>\u000a        <Param name="startType" val="time (s)" valType="str" updates="None"/>\u000a        <Param name="ori" val="0" valType="code" updates="constant"/>\u000a        <Param name="stopType" val="duration (s)" valType="str" updates="None"/>\u000a        <Param name="startVal" val="0.5" valType="code" updates="None"/>\u000a        <Param name="font" val="Arial" valType="str" updates="constant"/>\u000a        <Param name="letterHeight" val="0.1" valType="code" updates="constant"/>\u000a      </TextComponent>\u000a      <KeyboardComponent name="Next_Argument">\u000a        <Param name="correctAns" val="" valType="str" updates="constant"/>\u000a        <Param name="storeCorrect" val="False" valType="bool" updates="constant"/>\u000a        <Param name="name" val="Next_Argument" valType="code" updates="None"/>\u000a        <Param name="stopVal" val="" valType="code" updates="constant"/>\u000a        <Param name="durationEstim" val="" valType="code" updates="None"/>\u000a        <Param name="forceEndRoutine" val="True" valType="bool" updates="constant"/>\u000a        <Param name="startEstim" val="" valType="code" updates="None"/>\u000a        <Param name="discard previous" val="True" valType="bool" updates="constant"/>\u000a        <Param name="startType" val="time (s)" valType="str" updates="None"/>\u000a        <Param name="allowedKeys" val="'space'" valType="code" updates="constant"/>\u000a        <Param name="stopType" val="duration (s)" valType="str" updates="None"/>\u000a        <Param name="startVal" val="0.5" valType="code" updates="None"/>\u000a        <Param name="store" val="nothing" valType="str" updates="constant"/>\u000a      </KeyboardComponent>\u000a    </Routine>\u000a    <Routine name="question">\u000a      <TextComponent name="question_text">\u000a        <Param name="opacity" val="1" valType="code" updates="constant"/>\u000a        <Param name="colorSpace" val="rgb" valType="str" updates="constant"/>\u000a        <Param name="name" val="question_text" valType="code" updates="None"/>\u000a        <Param name="wrapWidth" val="35" valType="code" updates="constant"/>\u000a        <Param name="color" val="white" valType="str" updates="constant"/>\u000a        <Param name="text" val="$question" valType="str" updates="set every repeat"/>\u000a        <Param name="stopVal" val="" valType="code" updates="constant"/>\u000a        <Param name="durationEstim" val="" valType="code" updates="None"/>\u000a        <Param name="pos" val="[0, 0]" valType="code" updates="constant"/>\u000a        <Param name="flip" val="" valType="str" updates="constant"/>\u000a        <Param name="startEstim" val="" valType="code" updates="None"/>\u000a        <Param name="units" val="cm" valType="str" updates="None"/>\u000a        <Param name="startType" val="time (s)" valType="str" updates="None"/>\u000a        <Param name="ori" val="0" valType="code" updates="constant"/>\u000a        <Param name="stopType" val="duration (s)" valType="str" updates="None"/>\u000a        <Param name="startVal" val="0.5" valType="code" updates="None"/>\u000a        <Param name="font" val="Arial" valType="str" updates="constant"/>\u000a        <Param name="letterHeight" val="1" valType="code" updates="constant"/>\u000a      </TextComponent>\u000a      <KeyboardComponent name="rating">\u000a        <Param name="correctAns" val="" valType="str" updates="constant"/>\u000a        <Param name="storeCorrect" val="False" valType="bool" updates="constant"/>\u000a        <Param name="name" val="rating" valType="code" updates="None"/>\u000a        <Param name="stopVal" val="" valType="code" updates="constant"/>\u000a        <Param name="durationEstim" val="" valType="code" updates="None"/>\u000a        <Param name="forceEndRoutine" val="True" valType="bool" updates="constant"/>\u000a        <Param name="startEstim" val="" valType="code" updates="None"/>\u000a        <Param name="discard previous" val="True" valType="bool" updates="constant"/>\u000a        <Param name="startType" val="time (s)" valType="str" updates="None"/>\u000a        <Param name="allowedKeys" val="'1','2','3','4','5','6','7','8','9'" valType="code" updates="constant"/>\u000a        <Param name="stopType" val="duration (s)" valType="str" updates="None"/>\u000a        <Param name="startVal" val="0.5" valType="code" updates="None"/>\u000a        <Param name="store" val="last key" valType="str" updates="constant"/>\u000a      </KeyboardComponent>\u000a    </Routine>\u000a    <Routine name="argument">\u000a      <ImageComponent name="text_image">\u000a        <Param name="opacity" val="1" valType="code" updates="constant"/>\u000a        <Param name="flipVert" val="False" valType="bool" updates="constant"/>\u000a        <Param name="colorSpace" val="rgb" valType="str" updates="constant"/>\u000a        <Param name="name" val="text_image" valType="code" updates="constant"/>\u000a        <Param name="color" val="$[1,1,1]" valType="str" updates="constant"/>\u000a        <Param name="stopVal" val="1.0" valType="code" updates="constant"/>\u000a        <Param name="durationEstim" val="" valType="code" updates="None"/>\u000a        <Param name="mask" val="None" valType="str" updates="constant"/>\u000a        <Param name="pos" val="[0, 0]" valType="code" updates="constant"/>\u000a        <Param name="interpolate" val="" valType="str" updates="constant"/>\u000a        <Param name="startEstim" val="" valType="code" updates="None"/>\u000a        <Param name="units" val="from exp settings" valType="str" updates="None"/>\u000a        <Param name="texture resolution" val="128" valType="code" updates="constant"/>\u000a        <Param name="startType" val="time (s)" valType="str" updates="None"/>\u000a        <Param name="ori" val="0" valType="code" updates="constant"/>\u000a        <Param name="stopType" val="duration (s)" valType="str" updates="None"/>\u000a        <Param name="startVal" val="0.0" valType="code" updates="None"/>\u000a        <Param name="flipHoriz" val="False" valType="bool" updates="constant"/>\u000a        <Param name="image" val="$words" valType="str" updates="set every repeat"/>\u000a        <Param name="size" val="[.25, .125]" valType="code" updates="constant"/>\u000a      </ImageComponent>\u000a    </Routine>\u000a    <Routine name="next_ques"/>\u000a    <Routine name="pause">\u000a      <TextComponent name="text_2">\u000a        <Param name="opacity" val="1" valType="code" updates="constant"/>\u000a        <Param name="colorSpace" val="rgb" valType="str" updates="constant"/>\u000a        <Param name="name" val="text_2" valType="code" updates="None"/>\u000a        <Param name="wrapWidth" val="" valType="code" updates="constant"/>\u000a        <Param name="color" val="white" valType="str" updates="constant"/>\u000a        <Param name="text" val="" valType="str" updates="constant"/>\u000a        <Param name="stopVal" val="1.5" valType="code" updates="constant"/>\u000a        <Param name="durationEstim" val="" valType="code" updates="None"/>\u000a        <Param name="pos" val="[0, 0]" valType="code" updates="constant"/>\u000a        <Param name="flip" val="" valType="str" updates="constant"/>\u000a        <Param name="startEstim" val="" valType="code" updates="None"/>\u000a        <Param name="units" val="from exp settings" valType="str" updates="None"/>\u000a        <Param name="startType" val="time (s)" valType="str" updates="None"/>\u000a        <Param name="ori" val="0" valType="code" updates="constant"/>\u000a        <Param name="stopType" val="duration (s)" valType="str" updates="None"/>\u000a        <Param name="startVal" val="0.0" valType="code" updates="None"/>\u000a        <Param name="font" val="Arial" valType="str" updates="constant"/>\u000a        <Param name="letterHeight" val="0.1" valType="code" updates="constant"/>\u000a      </TextComponent>\u000a    </Routine>\u000a    <Routine name="instructions">\u000a      <TextComponent name="Instructions">\u000a        <Param name="opacity" val="1" valType="code" updates="constant"/>\u000a        <Param name="colorSpace" val="rgb" valType="str" updates="constant"/>\u000a        <Param name="name" val="Instructions" valType="code" updates="None"/>\u000a        <Param name="wrapWidth" val="35" valType="code" updates="constant"/>\u000a        <Param name="color" val="white" valType="str" updates="constant"/>\u000a        <Param name="text" val="$text" valType="str" updates="set every repeat"/>\u000a        <Param name="stopVal" val="" valType="code" updates="constant"/>\u000a        <Param name="durationEstim" val="" valType="code" updates="None"/>\u000a        <Param name="pos" val="[0, 5]" valType="code" updates="constant"/>\u000a        <Param name="flip" val="" valType="str" updates="constant"/>\u000a        <Param name="startEstim" val="" valType="code" updates="None"/>\u000a        <Param name="units" val="cm" valType="str" updates="None"/>\u000a        <Param name="startType" val="time (s)" valType="str" updates="None"/>\u000a        <Param name="ori" val="0" valType="code" updates="constant"/>\u000a        <Param name="stopType" val="duration (s)" valType="str" updates="None"/>\u000a        <Param name="startVal" val="0.0" valType="code" updates="None"/>\u000a        <Param name="font" val="Arial" valType="str" updates="constant"/>\u000a        <Param name="letterHeight" val="1" valType="code" updates="constant"/>\u000a      </TextComponent>\u000a      <KeyboardComponent name="Next_Instr">\u000a        <Param name="correctAns" val="" valType="str" updates="constant"/>\u000a        <Param name="storeCorrect" val="False" valType="bool" updates="constant"/>\u000a        <Param name="name" val="Next_Instr" valType="code" updates="None"/>\u000a        <Param name="stopVal" val="" valType="code" updates="constant"/>\u000a        <Param name="durationEstim" val="" valType="code" updates="None"/>\u000a        <Param name="forceEndRoutine" val="True" valType="bool" updates="constant"/>\u000a        <Param name="startEstim" val="" valType="code" updates="None"/>\u000a        <Param name="discard previous" val="True" valType="bool" updates="constant"/>\u000a        <Param name="startType" val="time (s)" valType="str" updates="None"/>\u000a        <Param name="allowedKeys" val="'space'" valType="code" updates="constant"/>\u000a        <Param name="stopType" val="duration (s)" valType="str" updates="None"/>\u000a        <Param name="startVal" val="0.0" valType="code" updates="None"/>\u000a        <Param name="store" val="nothing" valType="str" updates="constant"/>\u000a      </KeyboardComponent>\u000a      <TextComponent name="Space_Continue">\u000a        <Param name="opacity" val="1" valType="code" updates="constant"/>\u000a        <Param name="colorSpace" val="rgb" valType="str" updates="constant"/>\u000a        <Param name="name" val="Space_Continue" valType="code" updates="None"/>\u000a        <Param name="wrapWidth" val="35" valType="code" updates="constant"/>\u000a        <Param name="color" val="white" valType="str" updates="constant"/>\u000a        <Param name="text" val="Press SPACE to continue" valType="str" updates="constant"/>\u000a        <Param name="stopVal" val="" valType="code" updates="constant"/>\u000a        <Param name="durationEstim" val="" valType="code" updates="None"/>\u000a        <Param name="pos" val="[0, -7]" valType="code" updates="constant"/>\u000a        <Param name="flip" val="" valType="str" updates="constant"/>\u000a        <Param name="startEstim" val="" valType="code" updates="None"/>\u000a        <Param name="units" val="cm" valType="str" updates="None"/>\u000a        <Param name="startType" val="time (s)" valType="str" updates="None"/>\u000a        <Param name="ori" val="0" valType="code" updates="constant"/>\u000a        <Param name="stopType" val="duration (s)" valType="str" updates="None"/>\u000a        <Param name="startVal" val="0.0" valType="code" updates="None"/>\u000a        <Param name="font" val="Arial" valType="str" updates="constant"/>\u000a        <Param name="letterHeight" val="1" valType="code" updates="constant"/>\u000a      </TextComponent>\u000a      <ImageComponent name="Instr_Pic">\u000a        <Param name="opacity" val="1" valType="code" updates="constant"/>\u000a        <Param name="flipVert" val="False" valType="bool" updates="constant"/>\u000a        <Param name="colorSpace" val="rgb" valType="str" updates="constant"/>\u000a        <Param name="name" val="Instr_Pic" valType="code" updates="constant"/>\u000a        <Param name="color" val="$[1,1,1]" valType="str" updates="constant"/>\u000a        <Param name="stopVal" val="" valType="code" updates="constant"/>\u000a        <Param name="durationEstim" val="" valType="code" updates="None"/>\u000a        <Param name="mask" val="None" valType="str" updates="constant"/>\u000a        <Param name="pos" val="$pos" valType="code" updates="set every repeat"/>\u000a        <Param name="interpolate" val="" valType="str" updates="constant"/>\u000a        <Param name="startEstim" val="" valType="code" updates="None"/>\u000a        <Param name="units" val="from exp settings" valType="str" updates="None"/>\u000a        <Param name="texture resolution" val="128" valType="code" updates="constant"/>\u000a        <Param name="startType" val="time (s)" valType="str" updates="None"/>\u000a        <Param name="ori" val="0" valType="code" updates="constant"/>\u000a        <Param name="stopType" val="duration (s)" valType="str" updates="None"/>\u000a        <Param name="startVal" val="0.0" valType="code" updates="None"/>\u000a        <Param name="flipHoriz" val="False" valType="bool" updates="constant"/>\u000a        <Param name="image" val="$image" valType="str" updates="set every repeat"/>\u000a        <Param name="size" val="[0.5, 0.5]" valType="code" updates="constant"/>\u000a      </ImageComponent>\u000a    </Routine>\u000a  </Routines>\u000a  <Flow>\u000a    <LoopInitiator loopType="TrialHandler" name="instr_data">\u000a      <Param name="conditionsFile" val="instructions.xlsx" valType="str" updates="None"/>\u000a      <Param name="name" val="instr_data" valType="code" updates="None"/>\u000a      <Param name="random seed" val="" valType="code" updates="None"/>\u000a      <Param name="loopType" val="sequential" valType="str" updates="None"/>\u000a      <Param name="nReps" val="1" valType="code" updates="None"/>\u000a      <Param name="endPoints" val="[0, 1]" valType="num" updates="None"/>\u000a      <Param name="conditions" val="[{u'text': u'We are piloting a new method for group-grading exam questions. In this first section you will be reading aloud several arguments taken from LAW 204, Written and Oral Advocacy, taught at the UC Berkeley Law School.', u'image': u'nothing.jpg', u'pos': [20, 20]}, {u'text': u'You will read through student responses taken from the essay portion of the midterm exam. In order to give an objective analysis, you will be asked to read the essay responses aloud. In addition, sentences from each essay response will be presented phrase-by-phrase, not all at once.', u'image': u'nothing.jpg', u'pos': [20, 20]}, {u'text': u'Handwriting has been cropped and digitized into snippets like the one below, each of which contain individual phrases:', u'image': u'words\u005c\u005cexample.jpg', u'pos': [0, 0]}, {u'text': u'These snippets of text will appear on the screen for only one second each. When each phrase appears please read it out loud.', u'image': u'nothing.jpg', u'pos': [20, 20]}, {u'text': u'After you have read through each argument, you will be asked several questions about the complete argument. Please try to answer these questions as objectively as possible, as if you were a teaching assistant grading this exam.', u'image': u'nothing.jpg', u'pos': [20, 20]}, {u'text': u&quot;After this slide you'll begin a practice session in order to familiarize yourself with how to evaluate these arguments. An experimenter will stand by to correct you if you make any mistakes. If you have any questions, please ask the experimenter now.&quot;, u'image': u'nothing.jpg', u'pos': [20, 20]}]" valType="str" updates="None"/>\u000a    </LoopInitiator>\u000a    <Routine name="instructions"/>\u000a    <LoopTerminator name="instr_data"/>\u000a    <Routine name="pause"/>\u000a    <LoopInitiator loopType="TrialHandler" name="arguments_data">\u000a      <Param name="conditionsFile" val="arguments.csv" valType="str" updates="None"/>\u000a      <Param name="name" val="arguments_data" valType="code" updates="None"/>\u000a      <Param name="random seed" val="" valType="code" updates="None"/>\u000a      <Param name="loopType" val="random" valType="str" updates="None"/>\u000a      <Param name="nReps" val="1" valType="code" updates="None"/>\u000a      <Param name="endPoints" val="[0, 1]" valType="num" updates="None"/>\u000a      <Param name="conditions" val="[{'argument': u'clear_01.csv'}, {'argument': u'messy_01.csv'}]" valType="str" updates="None"/>\u000a    </LoopInitiator>\u000a    <Routine name="code"/>\u000a    <LoopInitiator loopType="TrialHandler" name="word_data">\u000a      <Param name="conditionsFile" val="$argument" valType="str" updates="None"/>\u000a      <Param name="name" val="word_data" valType="code" updates="None"/>\u000a      <Param name="random seed" val="" valType="code" updates="None"/>\u000a      <Param name="loopType" val="sequential" valType="str" updates="None"/>\u000a      <Param name="nReps" val="1" valType="code" updates="None"/>\u000a      <Param name="endPoints" val="[0, 1]" valType="num" updates="None"/>\u000a      <Param name="conditions" val="None" valType="str" updates="None"/>\u000a    </LoopInitiator>\u000a    <Routine name="code2"/>\u000a    <Routine name="argument"/>\u000a    <LoopTerminator name="word_data"/>\u000a    <LoopInitiator loopType="TrialHandler" name="questions">\u000a      <Param name="conditionsFile" val="questions.csv" valType="str" updates="None"/>\u000a      <Param name="name" val="questions" valType="code" updates="None"/>\u000a      <Param name="random seed" val="" valType="code" updates="None"/>\u000a      <Param name="loopType" val="random" valType="str" updates="None"/>\u000a      <Param name="nReps" val="1" valType="code" updates="None"/>\u000a      <Param name="endPoints" val="[0, 1]" valType="num" updates="None"/>\u000a      <Param name="conditions" val="None" valType="str" updates="None"/>\u000a    </LoopInitiator>\u000a    <Routine name="question"/>\u000a    <LoopTerminator name="questions"/>\u000a    <Routine name="next_arg"/>\u000a    <LoopTerminator name="arguments_data"/>\u000a    <Routine name="end"/>\u000a  </Flow>\u000a</PsychoPy2experiment>\u000a
p759
sg39
(lp760
sg46
I61206224
sg11
S'instr_data'
p761
sg6
g7
sg48
I1
sg17
I01
sg18
g19
sg49
g1
(g50
g41
(dp762
g52
g53
(g54
g55
g56
S'b'
tRp763
(I1
(I6
I1
tg58
I00
S'\x00\x00\x80?\x00\x00\x80?\x00\x00\x80?\x00\x00\x80?\x00\x00\x80?\x00\x00\x80?'
S'\x00\x00\x00\x00\x00\x00'
Ntbsg59
g53
(g54
g55
g56
S'b'
tRp764
(I1
(I6
I1
tg58
I00
S'\x00\x00\x00\x00\x00\x00\x80?\x00\x00\x00@\x00\x00@@\x00\x00\x80@\x00\x00\xa0@'
S'\x00\x00\x00\x00\x00\x00'
NtbstRp765
(dp766
g63
(dp767
g52
I01
sg59
I01
ssg65
g757
sg66
(lp768
g52
ag59
asg68
(lp769
I6
aI1
asbsg70
S'sequential'
p770
sg72
g73
(g55
(I0
tS'b'
tRp771
(I1
(I6
I1
tg75
I00
S'\x00\x00\x00\x00\x01\x00\x00\x00\x02\x00\x00\x00\x03\x00\x00\x00\x04\x00\x00\x00\x05\x00\x00\x00'
tbsg76
I01
sg77
I1
sg78
I-1
sg79
(lp772
g1
(g40
g41
(dp773
g100
g109
sg101
g110
sg102
g111
stRp774
ag1
(g40
g41
(dp775
g100
g118
sg101
g119
sg102
g120
stRp776
ag1
(g40
g41
(dp777
g100
g127
sg101
g128
sg102
g129
stRp778
ag1
(g40
g41
(dp779
g100
g136
sg101
g137
sg102
g138
stRp780
ag1
(g40
g41
(dp781
g100
g145
sg101
g146
sg102
g147
stRp782
ag1
(g40
g41
(dp783
g100
g154
sg101
g155
sg102
g156
stRp784
asg87
Nsg88
g160
sg90
I6
sg91
I0
sg92
I6
sg93
I01
sbag35
ag1
(g34
g3
NtRp785
(dp786
g37
V<PsychoPy2experiment version="1.80.06" encoding="utf-8">\u000a  <Settings>\u000a    <Param name="Show mouse" val="False" valType="bool" updates="None"/>\u000a    <Param name="Data filename" val="'data/%s_%s_%s' %(expInfo['participant'], expName, expInfo['date'])" valType="code" updates="None"/>\u000a    <Param name="Monitor" val="testMonitor" valType="str" updates="None"/>\u000a    <Param name="Enable Escape" val="True" valType="bool" updates="None"/>\u000a    <Param name="color" val="$[0,0,0]" valType="str" updates="None"/>\u000a    <Param name="Window size (pixels)" val="[1024, 768]" valType="code" updates="None"/>\u000a    <Param name="Full-screen window" val="True" valType="bool" updates="None"/>\u000a    <Param name="colorSpace" val="rgb" valType="str" updates="None"/>\u000a    <Param name="Experiment info" val="{'participant':'', 'session':'001'}" valType="code" updates="None"/>\u000a    <Param name="Save csv file" val="False" valType="bool" updates="None"/>\u000a    <Param name="Show info dlg" val="True" valType="bool" updates="None"/>\u000a    <Param name="Save wide csv file" val="True" valType="bool" updates="None"/>\u000a    <Param name="Save psydat file" val="True" valType="bool" updates="None"/>\u000a    <Param name="expName" val="Arguments" valType="str" updates="None"/>\u000a    <Param name="logging level" val="exp" valType="code" updates="None"/>\u000a    <Param name="blendMode" val="avg" valType="str" updates="None"/>\u000a    <Param name="Save excel file" val="False" valType="bool" updates="None"/>\u000a    <Param name="Units" val="use prefs" valType="str" updates="None"/>\u000a    <Param name="Save log file" val="True" valType="bool" updates="None"/>\u000a    <Param name="Screen" val="1" valType="num" updates="None"/>\u000a  </Settings>\u000a  <Routines>\u000a    <Routine name="code2">\u000a      <CodeComponent name="read_CSV2">\u000a        <Param name="Begin Experiment" val="" valType="extendedCode" updates="constant"/>\u000a        <Param name="name" val="read_CSV2" valType="code" updates="None"/>\u000a        <Param name="Each Frame" val="" valType="extendedCode" updates="constant"/>\u000a        <Param name="Begin Routine" val="words = words.replace('&quot;','')" valType="extendedCode" updates="constant"/>\u000a        <Param name="End Routine" val="" valType="extendedCode" updates="constant"/>\u000a        <Param name="End Experiment" val="" valType="extendedCode" updates="constant"/>\u000a      </CodeComponent>\u000a    </Routine>\u000a    <Routine name="code">\u000a      <CodeComponent name="read_CSV">\u000a        <Param name="Begin Experiment" val="" valType="extendedCode" updates="constant"/>\u000a        <Param name="name" val="read_CSV" valType="code" updates="None"/>\u000a        <Param name="Each Frame" val="" valType="extendedCode" updates="constant"/>\u000a        <Param name="Begin Routine" val="argument = argument.replace('&quot;', '')" valType="extendedCode" updates="constant"/>\u000a        <Param name="End Routine" val="" valType="extendedCode" updates="constant"/>\u000a        <Param name="End Experiment" val="" valType="extendedCode" updates="constant"/>\u000a      </CodeComponent>\u000a    </Routine>\u000a    <Routine name="end">\u000a      <TextComponent name="End">\u000a        <Param name="opacity" val="1" valType="code" updates="constant"/>\u000a        <Param name="colorSpace" val="rgb" valType="str" updates="constant"/>\u000a        <Param name="name" val="End" valType="code" updates="None"/>\u000a        <Param name="wrapWidth" val="35" valType="code" updates="constant"/>\u000a        <Param name="color" val="white" valType="str" updates="constant"/>\u000a        <Param name="text" val="Thanks for participating!&#10;&#10;Please turn around and tell the experimenter that you have finished!" valType="str" updates="constant"/>\u000a        <Param name="stopVal" val="5" valType="code" updates="constant"/>\u000a        <Param name="durationEstim" val="" valType="code" updates="None"/>\u000a        <Param name="pos" val="[0, 0]" valType="code" updates="constant"/>\u000a        <Param name="flip" val="" valType="str" updates="constant"/>\u000a        <Param name="startEstim" val="" valType="code" updates="None"/>\u000a        <Param name="units" val="cm" valType="str" updates="None"/>\u000a        <Param name="startType" val="time (s)" valType="str" updates="None"/>\u000a        <Param name="ori" val="0" valType="code" updates="constant"/>\u000a        <Param name="stopType" val="duration (s)" valType="str" updates="None"/>\u000a        <Param name="startVal" val="0.0" valType="code" updates="None"/>\u000a        <Param name="font" val="Arial" valType="str" updates="constant"/>\u000a        <Param name="letterHeight" val="1" valType="code" updates="constant"/>\u000a      </TextComponent>\u000a    </Routine>\u000a    <Routine name="next_arg">\u000a      <TextComponent name="text_3">\u000a        <Param name="opacity" val="1" valType="code" updates="constant"/>\u000a        <Param name="colorSpace" val="rgb" valType="str" updates="constant"/>\u000a        <Param name="name" val="text_3" valType="code" updates="None"/>\u000a        <Param name="wrapWidth" val="" valType="code" updates="constant"/>\u000a        <Param name="color" val="white" valType="str" updates="constant"/>\u000a        <Param name="text" val="Press SPACE when you are ready to read the next argument." valType="str" updates="constant"/>\u000a        <Param name="stopVal" val="" valType="code" updates="constant"/>\u000a        <Param name="durationEstim" val="" valType="code" updates="None"/>\u000a        <Param name="pos" val="[0, 0]" valType="code" updates="constant"/>\u000a        <Param name="flip" val="" valType="str" updates="constant"/>\u000a        <Param name="startEstim" val="" valType="code" updates="None"/>\u000a        <Param name="units" val="from exp settings" valType="str" updates="None"/>\u000a        <Param name="startType" val="time (s)" valType="str" updates="None"/>\u000a        <Param name="ori" val="0" valType="code" updates="constant"/>\u000a        <Param name="stopType" val="duration (s)" valType="str" updates="None"/>\u000a        <Param name="startVal" val="0.5" valType="code" updates="None"/>\u000a        <Param name="font" val="Arial" valType="str" updates="constant"/>\u000a        <Param name="letterHeight" val="0.1" valType="code" updates="constant"/>\u000a      </TextComponent>\u000a      <KeyboardComponent name="Next_Argument">\u000a        <Param name="correctAns" val="" valType="str" updates="constant"/>\u000a        <Param name="storeCorrect" val="False" valType="bool" updates="constant"/>\u000a        <Param name="name" val="Next_Argument" valType="code" updates="None"/>\u000a        <Param name="stopVal" val="" valType="code" updates="constant"/>\u000a        <Param name="durationEstim" val="" valType="code" updates="None"/>\u000a        <Param name="forceEndRoutine" val="True" valType="bool" updates="constant"/>\u000a        <Param name="startEstim" val="" valType="code" updates="None"/>\u000a        <Param name="discard previous" val="True" valType="bool" updates="constant"/>\u000a        <Param name="startType" val="time (s)" valType="str" updates="None"/>\u000a        <Param name="allowedKeys" val="'space'" valType="code" updates="constant"/>\u000a        <Param name="stopType" val="duration (s)" valType="str" updates="None"/>\u000a        <Param name="startVal" val="0.5" valType="code" updates="None"/>\u000a        <Param name="store" val="nothing" valType="str" updates="constant"/>\u000a      </KeyboardComponent>\u000a    </Routine>\u000a    <Routine name="question">\u000a      <TextComponent name="question_text">\u000a        <Param name="opacity" val="1" valType="code" updates="constant"/>\u000a        <Param name="colorSpace" val="rgb" valType="str" updates="constant"/>\u000a        <Param name="name" val="question_text" valType="code" updates="None"/>\u000a        <Param name="wrapWidth" val="35" valType="code" updates="constant"/>\u000a        <Param name="color" val="white" valType="str" updates="constant"/>\u000a        <Param name="text" val="$question" valType="str" updates="set every repeat"/>\u000a        <Param name="stopVal" val="" valType="code" updates="constant"/>\u000a        <Param name="durationEstim" val="" valType="code" updates="None"/>\u000a        <Param name="pos" val="[0, 0]" valType="code" updates="constant"/>\u000a        <Param name="flip" val="" valType="str" updates="constant"/>\u000a        <Param name="startEstim" val="" valType="code" updates="None"/>\u000a        <Param name="units" val="cm" valType="str" updates="None"/>\u000a        <Param name="startType" val="time (s)" valType="str" updates="None"/>\u000a        <Param name="ori" val="0" valType="code" updates="constant"/>\u000a        <Param name="stopType" val="duration (s)" valType="str" updates="None"/>\u000a        <Param name="startVal" val="0.5" valType="code" updates="None"/>\u000a        <Param name="font" val="Arial" valType="str" updates="constant"/>\u000a        <Param name="letterHeight" val="1" valType="code" updates="constant"/>\u000a      </TextComponent>\u000a      <KeyboardComponent name="rating">\u000a        <Param name="correctAns" val="" valType="str" updates="constant"/>\u000a        <Param name="storeCorrect" val="False" valType="bool" updates="constant"/>\u000a        <Param name="name" val="rating" valType="code" updates="None"/>\u000a        <Param name="stopVal" val="" valType="code" updates="constant"/>\u000a        <Param name="durationEstim" val="" valType="code" updates="None"/>\u000a        <Param name="forceEndRoutine" val="True" valType="bool" updates="constant"/>\u000a        <Param name="startEstim" val="" valType="code" updates="None"/>\u000a        <Param name="discard previous" val="True" valType="bool" updates="constant"/>\u000a        <Param name="startType" val="time (s)" valType="str" updates="None"/>\u000a        <Param name="allowedKeys" val="'1','2','3','4','5','6','7','8','9'" valType="code" updates="constant"/>\u000a        <Param name="stopType" val="duration (s)" valType="str" updates="None"/>\u000a        <Param name="startVal" val="0.5" valType="code" updates="None"/>\u000a        <Param name="store" val="last key" valType="str" updates="constant"/>\u000a      </KeyboardComponent>\u000a    </Routine>\u000a    <Routine name="argument">\u000a      <ImageComponent name="text_image">\u000a        <Param name="opacity" val="1" valType="code" updates="constant"/>\u000a        <Param name="flipVert" val="False" valType="bool" updates="constant"/>\u000a        <Param name="colorSpace" val="rgb" valType="str" updates="constant"/>\u000a        <Param name="name" val="text_image" valType="code" updates="constant"/>\u000a        <Param name="color" val="$[1,1,1]" valType="str" updates="constant"/>\u000a        <Param name="stopVal" val="1.0" valType="code" updates="constant"/>\u000a        <Param name="durationEstim" val="" valType="code" updates="None"/>\u000a        <Param name="mask" val="None" valType="str" updates="constant"/>\u000a        <Param name="pos" val="[0, 0]" valType="code" updates="constant"/>\u000a        <Param name="interpolate" val="" valType="str" updates="constant"/>\u000a        <Param name="startEstim" val="" valType="code" updates="None"/>\u000a        <Param name="units" val="from exp settings" valType="str" updates="None"/>\u000a        <Param name="texture resolution" val="128" valType="code" updates="constant"/>\u000a        <Param name="startType" val="time (s)" valType="str" updates="None"/>\u000a        <Param name="ori" val="0" valType="code" updates="constant"/>\u000a        <Param name="stopType" val="duration (s)" valType="str" updates="None"/>\u000a        <Param name="startVal" val="0.0" valType="code" updates="None"/>\u000a        <Param name="flipHoriz" val="False" valType="bool" updates="constant"/>\u000a        <Param name="image" val="$words" valType="str" updates="set every repeat"/>\u000a        <Param name="size" val="[.25, .125]" valType="code" updates="constant"/>\u000a      </ImageComponent>\u000a    </Routine>\u000a    <Routine name="next_ques"/>\u000a    <Routine name="pause">\u000a      <TextComponent name="text_2">\u000a        <Param name="opacity" val="1" valType="code" updates="constant"/>\u000a        <Param name="colorSpace" val="rgb" valType="str" updates="constant"/>\u000a        <Param name="name" val="text_2" valType="code" updates="None"/>\u000a        <Param name="wrapWidth" val="" valType="code" updates="constant"/>\u000a        <Param name="color" val="white" valType="str" updates="constant"/>\u000a        <Param name="text" val="" valType="str" updates="constant"/>\u000a        <Param name="stopVal" val="1.5" valType="code" updates="constant"/>\u000a        <Param name="durationEstim" val="" valType="code" updates="None"/>\u000a        <Param name="pos" val="[0, 0]" valType="code" updates="constant"/>\u000a        <Param name="flip" val="" valType="str" updates="constant"/>\u000a        <Param name="startEstim" val="" valType="code" updates="None"/>\u000a        <Param name="units" val="from exp settings" valType="str" updates="None"/>\u000a        <Param name="startType" val="time (s)" valType="str" updates="None"/>\u000a        <Param name="ori" val="0" valType="code" updates="constant"/>\u000a        <Param name="stopType" val="duration (s)" valType="str" updates="None"/>\u000a        <Param name="startVal" val="0.0" valType="code" updates="None"/>\u000a        <Param name="font" val="Arial" valType="str" updates="constant"/>\u000a        <Param name="letterHeight" val="0.1" valType="code" updates="constant"/>\u000a      </TextComponent>\u000a    </Routine>\u000a    <Routine name="instructions">\u000a      <TextComponent name="Instructions">\u000a        <Param name="opacity" val="1" valType="code" updates="constant"/>\u000a        <Param name="colorSpace" val="rgb" valType="str" updates="constant"/>\u000a        <Param name="name" val="Instructions" valType="code" updates="None"/>\u000a        <Param name="wrapWidth" val="35" valType="code" updates="constant"/>\u000a        <Param name="color" val="white" valType="str" updates="constant"/>\u000a        <Param name="text" val="$text" valType="str" updates="set every repeat"/>\u000a        <Param name="stopVal" val="" valType="code" updates="constant"/>\u000a        <Param name="durationEstim" val="" valType="code" updates="None"/>\u000a        <Param name="pos" val="[0, 5]" valType="code" updates="constant"/>\u000a        <Param name="flip" val="" valType="str" updates="constant"/>\u000a        <Param name="startEstim" val="" valType="code" updates="None"/>\u000a        <Param name="units" val="cm" valType="str" updates="None"/>\u000a        <Param name="startType" val="time (s)" valType="str" updates="None"/>\u000a        <Param name="ori" val="0" valType="code" updates="constant"/>\u000a        <Param name="stopType" val="duration (s)" valType="str" updates="None"/>\u000a        <Param name="startVal" val="0.0" valType="code" updates="None"/>\u000a        <Param name="font" val="Arial" valType="str" updates="constant"/>\u000a        <Param name="letterHeight" val="1" valType="code" updates="constant"/>\u000a      </TextComponent>\u000a      <KeyboardComponent name="Next_Instr">\u000a        <Param name="correctAns" val="" valType="str" updates="constant"/>\u000a        <Param name="storeCorrect" val="False" valType="bool" updates="constant"/>\u000a        <Param name="name" val="Next_Instr" valType="code" updates="None"/>\u000a        <Param name="stopVal" val="" valType="code" updates="constant"/>\u000a        <Param name="durationEstim" val="" valType="code" updates="None"/>\u000a        <Param name="forceEndRoutine" val="True" valType="bool" updates="constant"/>\u000a        <Param name="startEstim" val="" valType="code" updates="None"/>\u000a        <Param name="discard previous" val="True" valType="bool" updates="constant"/>\u000a        <Param name="startType" val="time (s)" valType="str" updates="None"/>\u000a        <Param name="allowedKeys" val="'space'" valType="code" updates="constant"/>\u000a        <Param name="stopType" val="duration (s)" valType="str" updates="None"/>\u000a        <Param name="startVal" val="0.0" valType="code" updates="None"/>\u000a        <Param name="store" val="nothing" valType="str" updates="constant"/>\u000a      </KeyboardComponent>\u000a      <TextComponent name="Space_Continue">\u000a        <Param name="opacity" val="1" valType="code" updates="constant"/>\u000a        <Param name="colorSpace" val="rgb" valType="str" updates="constant"/>\u000a        <Param name="name" val="Space_Continue" valType="code" updates="None"/>\u000a        <Param name="wrapWidth" val="35" valType="code" updates="constant"/>\u000a        <Param name="color" val="white" valType="str" updates="constant"/>\u000a        <Param name="text" val="Press SPACE to continue" valType="str" updates="constant"/>\u000a        <Param name="stopVal" val="" valType="code" updates="constant"/>\u000a        <Param name="durationEstim" val="" valType="code" updates="None"/>\u000a        <Param name="pos" val="[0, -7]" valType="code" updates="constant"/>\u000a        <Param name="flip" val="" valType="str" updates="constant"/>\u000a        <Param name="startEstim" val="" valType="code" updates="None"/>\u000a        <Param name="units" val="cm" valType="str" updates="None"/>\u000a        <Param name="startType" val="time (s)" valType="str" updates="None"/>\u000a        <Param name="ori" val="0" valType="code" updates="constant"/>\u000a        <Param name="stopType" val="duration (s)" valType="str" updates="None"/>\u000a        <Param name="startVal" val="0.0" valType="code" updates="None"/>\u000a        <Param name="font" val="Arial" valType="str" updates="constant"/>\u000a        <Param name="letterHeight" val="1" valType="code" updates="constant"/>\u000a      </TextComponent>\u000a      <ImageComponent name="Instr_Pic">\u000a        <Param name="opacity" val="1" valType="code" updates="constant"/>\u000a        <Param name="flipVert" val="False" valType="bool" updates="constant"/>\u000a        <Param name="colorSpace" val="rgb" valType="str" updates="constant"/>\u000a        <Param name="name" val="Instr_Pic" valType="code" updates="constant"/>\u000a        <Param name="color" val="$[1,1,1]" valType="str" updates="constant"/>\u000a        <Param name="stopVal" val="" valType="code" updates="constant"/>\u000a        <Param name="durationEstim" val="" valType="code" updates="None"/>\u000a        <Param name="mask" val="None" valType="str" updates="constant"/>\u000a        <Param name="pos" val="$pos" valType="code" updates="set every repeat"/>\u000a        <Param name="interpolate" val="" valType="str" updates="constant"/>\u000a        <Param name="startEstim" val="" valType="code" updates="None"/>\u000a        <Param name="units" val="from exp settings" valType="str" updates="None"/>\u000a        <Param name="texture resolution" val="128" valType="code" updates="constant"/>\u000a        <Param name="startType" val="time (s)" valType="str" updates="None"/>\u000a        <Param name="ori" val="0" valType="code" updates="constant"/>\u000a        <Param name="stopType" val="duration (s)" valType="str" updates="None"/>\u000a        <Param name="startVal" val="0.0" valType="code" updates="None"/>\u000a        <Param name="flipHoriz" val="False" valType="bool" updates="constant"/>\u000a        <Param name="image" val="$image" valType="str" updates="set every repeat"/>\u000a        <Param name="size" val="[0.5, 0.5]" valType="code" updates="constant"/>\u000a      </ImageComponent>\u000a    </Routine>\u000a  </Routines>\u000a  <Flow>\u000a    <LoopInitiator loopType="TrialHandler" name="instr_data">\u000a      <Param name="conditionsFile" val="instructions.xlsx" valType="str" updates="None"/>\u000a      <Param name="name" val="instr_data" valType="code" updates="None"/>\u000a      <Param name="random seed" val="" valType="code" updates="None"/>\u000a      <Param name="loopType" val="sequential" valType="str" updates="None"/>\u000a      <Param name="nReps" val="1" valType="code" updates="None"/>\u000a      <Param name="endPoints" val="[0, 1]" valType="num" updates="None"/>\u000a      <Param name="conditions" val="[{u'text': u'We are piloting a new method for group-grading exam questions. In this first section you will be reading aloud several arguments taken from LAW 204, Written and Oral Advocacy, taught at the UC Berkeley Law School.', u'image': u'nothing.jpg', u'pos': [20, 20]}, {u'text': u'You will read through student responses taken from the essay portion of the midterm exam. In order to give an objective analysis, you will be asked to read the essay responses aloud. In addition, sentences from each essay response will be presented phrase-by-phrase, not all at once.', u'image': u'nothing.jpg', u'pos': [20, 20]}, {u'text': u'Handwriting has been cropped and digitized into snippets like the one below, each of which contain individual phrases:', u'image': u'words\u005c\u005cexample.jpg', u'pos': [0, 0]}, {u'text': u'These snippets of text will appear on the screen for only one second each. When each phrase appears please read it out loud.', u'image': u'nothing.jpg', u'pos': [20, 20]}, {u'text': u'After you have read through each argument, you will be asked several questions about the complete argument. Please try to answer these questions as objectively as possible, as if you were a teaching assistant grading this exam.', u'image': u'nothing.jpg', u'pos': [20, 20]}, {u'text': u&quot;After this slide you'll begin a practice session in order to familiarize yourself with how to evaluate these arguments. An experimenter will stand by to correct you if you make any mistakes. If you have any questions, please ask the experimenter now.&quot;, u'image': u'nothing.jpg', u'pos': [20, 20]}]" valType="str" updates="None"/>\u000a    </LoopInitiator>\u000a    <Routine name="instructions"/>\u000a    <LoopTerminator name="instr_data"/>\u000a    <Routine name="pause"/>\u000a    <LoopInitiator loopType="TrialHandler" name="arguments_data">\u000a      <Param name="conditionsFile" val="arguments.csv" valType="str" updates="None"/>\u000a      <Param name="name" val="arguments_data" valType="code" updates="None"/>\u000a      <Param name="random seed" val="" valType="code" updates="None"/>\u000a      <Param name="loopType" val="random" valType="str" updates="None"/>\u000a      <Param name="nReps" val="1" valType="code" updates="None"/>\u000a      <Param name="endPoints" val="[0, 1]" valType="num" updates="None"/>\u000a      <Param name="conditions" val="[{'argument': u'clear_01.csv'}, {'argument': u'messy_01.csv'}]" valType="str" updates="None"/>\u000a    </LoopInitiator>\u000a    <Routine name="code"/>\u000a    <LoopInitiator loopType="TrialHandler" name="word_data">\u000a      <Param name="conditionsFile" val="$argument" valType="str" updates="None"/>\u000a      <Param name="name" val="word_data" valType="code" updates="None"/>\u000a      <Param name="random seed" val="" valType="code" updates="None"/>\u000a      <Param name="loopType" val="sequential" valType="str" updates="None"/>\u000a      <Param name="nReps" val="1" valType="code" updates="None"/>\u000a      <Param name="endPoints" val="[0, 1]" valType="num" updates="None"/>\u000a      <Param name="conditions" val="None" valType="str" updates="None"/>\u000a    </LoopInitiator>\u000a    <Routine name="code2"/>\u000a    <Routine name="argument"/>\u000a    <LoopTerminator name="word_data"/>\u000a    <LoopInitiator loopType="TrialHandler" name="questions">\u000a      <Param name="conditionsFile" val="questions.csv" valType="str" updates="None"/>\u000a      <Param name="name" val="questions" valType="code" updates="None"/>\u000a      <Param name="random seed" val="" valType="code" updates="None"/>\u000a      <Param name="loopType" val="random" valType="str" updates="None"/>\u000a      <Param name="nReps" val="1" valType="code" updates="None"/>\u000a      <Param name="endPoints" val="[0, 1]" valType="num" updates="None"/>\u000a      <Param name="conditions" val="None" valType="str" updates="None"/>\u000a    </LoopInitiator>\u000a    <Routine name="question"/>\u000a    <LoopTerminator name="questions"/>\u000a    <Routine name="next_arg"/>\u000a    <LoopTerminator name="arguments_data"/>\u000a    <Routine name="end"/>\u000a  </Flow>\u000a</PsychoPy2experiment>\u000a
p787
sg39
(lp788
sg46
I61206224
sg11
S'word_data'
p789
sg6
g7
sg48
I1
sg17
I01
sg18
g19
sg49
g1
(g50
g41
(dp790
g52
g53
(g54
g55
g56
S'b'
tRp791
(I1
(I49
I1
tg58
I00
S'\x00\x00\x80?\x00\x00\x80?\x00\x00\x80?\x00\x00\x80?\x00\x00\x80?\x00\x00\x80?\x00\x00\x80?\x00\x00\x80?\x00\x00\x80?\x00\x00\x80?\x00\x00\x80?\x00\x00\x80?\x00\x00\x80?\x00\x00\x80?\x00\x00\x80?\x00\x00\x80?\x00\x00\x80?\x00\x00\x80?\x00\x00\x80?\x00\x00\x80?\x00\x00\x80?\x00\x00\x80?\x00\x00\x80?\x00\x00\x80?\x00\x00\x80?\x00\x00\x80?\x00\x00\x80?\x00\x00\x80?\x00\x00\x80?\x00\x00\x80?\x00\x00\x80?\x00\x00\x80?\x00\x00\x80?\x00\x00\x80?\x00\x00\x80?\x00\x00\x80?\x00\x00\x80?\x00\x00\x80?\x00\x00\x80?\x00\x00\x80?\x00\x00\x80?\x00\x00\x80?\x00\x00\x80?\x00\x00\x80?\x00\x00\x80?\x00\x00\x80?\x00\x00\x80?\x00\x00\x80?\x00\x00\x80?'
S'\x00\x00\x00\x00\x00\x00\x00\x00\x00\x00\x00\x00\x00\x00\x00\x00\x00\x00\x00\x00\x00\x00\x00\x00\x00\x00\x00\x00\x00\x00\x00\x00\x00\x00\x00\x00\x00\x00\x00\x00\x00\x00\x00\x00\x00\x00\x00\x00\x00'
Ntbsg59
g53
(g54
g55
g56
S'b'
tRp792
(I1
(I49
I1
tg58
I00
S'\x00\x00\x00\x00\x00\x00\x80?\x00\x00\x00@\x00\x00@@\x00\x00\x80@\x00\x00\xa0@\x00\x00\xc0@\x00\x00\xe0@\x00\x00\x00A\x00\x00\x10A\x00\x00 A\x00\x000A\x00\x00@A\x00\x00PA\x00\x00`A\x00\x00pA\x00\x00\x80A\x00\x00\x88A\x00\x00\x90A\x00\x00\x98A\x00\x00\xa0A\x00\x00\xa8A\x00\x00\xb0A\x00\x00\xb8A\x00\x00\xc0A\x00\x00\xc8A\x00\x00\xd0A\x00\x00\xd8A\x00\x00\xe0A\x00\x00\xe8A\x00\x00\xf0A\x00\x00\xf8A\x00\x00\x00B\x00\x00\x04B\x00\x00\x08B\x00\x00\x0cB\x00\x00\x10B\x00\x00\x14B\x00\x00\x18B\x00\x00\x1cB\x00\x00 B\x00\x00$B\x00\x00(B\x00\x00,B\x00\x000B\x00\x004B\x00\x008B\x00\x00<B\x00\x00@B'
S'\x00\x00\x00\x00\x00\x00\x00\x00\x00\x00\x00\x00\x00\x00\x00\x00\x00\x00\x00\x00\x00\x00\x00\x00\x00\x00\x00\x00\x00\x00\x00\x00\x00\x00\x00\x00\x00\x00\x00\x00\x00\x00\x00\x00\x00\x00\x00\x00\x00'
NtbstRp793
(dp794
g63
(dp795
g52
I01
sg59
I01
ssg65
g785
sg66
(lp796
g52
ag59
asg68
(lp797
I49
aI1
asbsg70
g770
sg72
g73
(g55
(I0
tS'b'
tRp798
(I1
(I49
I1
tg75
I00
S'\x00\x00\x00\x00\x01\x00\x00\x00\x02\x00\x00\x00\x03\x00\x00\x00\x04\x00\x00\x00\x05\x00\x00\x00\x06\x00\x00\x00\x07\x00\x00\x00\x08\x00\x00\x00\t\x00\x00\x00\n\x00\x00\x00\x0b\x00\x00\x00\x0c\x00\x00\x00\r\x00\x00\x00\x0e\x00\x00\x00\x0f\x00\x00\x00\x10\x00\x00\x00\x11\x00\x00\x00\x12\x00\x00\x00\x13\x00\x00\x00\x14\x00\x00\x00\x15\x00\x00\x00\x16\x00\x00\x00\x17\x00\x00\x00\x18\x00\x00\x00\x19\x00\x00\x00\x1a\x00\x00\x00\x1b\x00\x00\x00\x1c\x00\x00\x00\x1d\x00\x00\x00\x1e\x00\x00\x00\x1f\x00\x00\x00 \x00\x00\x00!\x00\x00\x00"\x00\x00\x00#\x00\x00\x00$\x00\x00\x00%\x00\x00\x00&\x00\x00\x00\'\x00\x00\x00(\x00\x00\x00)\x00\x00\x00*\x00\x00\x00+\x00\x00\x00,\x00\x00\x00-\x00\x00\x00.\x00\x00\x00/\x00\x00\x000\x00\x00\x00'
tbsg76
I01
sg77
I1
sg78
I-1
sg79
(lp799
g1
(g40
g41
(dp800
g103
g169
stRp801
ag1
(g40
g41
(dp802
g103
g180
stRp803
ag1
(g40
g41
(dp804
g103
g191
stRp805
ag1
(g40
g41
(dp806
g103
g202
stRp807
ag1
(g40
g41
(dp808
g103
g213
stRp809
ag1
(g40
g41
(dp810
g103
g224
stRp811
ag1
(g40
g41
(dp812
g103
g235
stRp813
ag1
(g40
g41
(dp814
g103
g246
stRp815
ag1
(g40
g41
(dp816
g103
g257
stRp817
ag1
(g40
g41
(dp818
g103
g268
stRp819
ag1
(g40
g41
(dp820
g103
g279
stRp821
ag1
(g40
g41
(dp822
g103
g290
stRp823
ag1
(g40
g41
(dp824
g103
g301
stRp825
ag1
(g40
g41
(dp826
g103
g312
stRp827
ag1
(g40
g41
(dp828
g103
g323
stRp829
ag1
(g40
g41
(dp830
g103
g334
stRp831
ag1
(g40
g41
(dp832
g103
g345
stRp833
ag1
(g40
g41
(dp834
g103
g356
stRp835
ag1
(g40
g41
(dp836
g103
g367
stRp837
ag1
(g40
g41
(dp838
g103
g378
stRp839
ag1
(g40
g41
(dp840
g103
g389
stRp841
ag1
(g40
g41
(dp842
g103
g400
stRp843
ag1
(g40
g41
(dp844
g103
g411
stRp845
ag1
(g40
g41
(dp846
g103
g422
stRp847
ag1
(g40
g41
(dp848
g103
g433
stRp849
ag1
(g40
g41
(dp850
g103
g444
stRp851
ag1
(g40
g41
(dp852
g103
g455
stRp853
ag1
(g40
g41
(dp854
g103
g466
stRp855
ag1
(g40
g41
(dp856
g103
g477
stRp857
ag1
(g40
g41
(dp858
g103
g488
stRp859
ag1
(g40
g41
(dp860
g103
g499
stRp861
ag1
(g40
g41
(dp862
g103
g510
stRp863
ag1
(g40
g41
(dp864
g103
g521
stRp865
ag1
(g40
g41
(dp866
g103
g532
stRp867
ag1
(g40
g41
(dp868
g103
g543
stRp869
ag1
(g40
g41
(dp870
g103
g554
stRp871
ag1
(g40
g41
(dp872
g103
g565
stRp873
ag1
(g40
g41
(dp874
g103
g576
stRp875
ag1
(g40
g41
(dp876
g103
g587
stRp877
ag1
(g40
g41
(dp878
g103
g598
stRp879
ag1
(g40
g41
(dp880
g103
g609
stRp881
ag1
(g40
g41
(dp882
g103
g620
stRp883
ag1
(g40
g41
(dp884
g103
g631
stRp885
ag1
(g40
g41
(dp886
g103
g642
stRp887
ag1
(g40
g41
(dp888
g103
g653
stRp889
ag1
(g40
g41
(dp890
g103
g664
stRp891
ag1
(g40
g41
(dp892
g103
g675
stRp893
ag1
(g40
g41
(dp894
g103
g686
stRp895
ag1
(g40
g41
(dp896
g103
g697
stRp897
asg87
Nsg88
g695
sg90
I49
sg91
I0
sg92
I49
sg93
I01
sbag1
(g34
g3
NtRp898
(dp899
g37
V<PsychoPy2experiment version="1.80.06" encoding="utf-8">\u000a  <Settings>\u000a    <Param name="Show mouse" val="False" valType="bool" updates="None"/>\u000a    <Param name="Data filename" val="'data/%s_%s_%s' %(expInfo['participant'], expName, expInfo['date'])" valType="code" updates="None"/>\u000a    <Param name="Monitor" val="testMonitor" valType="str" updates="None"/>\u000a    <Param name="Enable Escape" val="True" valType="bool" updates="None"/>\u000a    <Param name="color" val="$[0,0,0]" valType="str" updates="None"/>\u000a    <Param name="Window size (pixels)" val="[1024, 768]" valType="code" updates="None"/>\u000a    <Param name="Full-screen window" val="True" valType="bool" updates="None"/>\u000a    <Param name="colorSpace" val="rgb" valType="str" updates="None"/>\u000a    <Param name="Experiment info" val="{'participant':'', 'session':'001'}" valType="code" updates="None"/>\u000a    <Param name="Save csv file" val="False" valType="bool" updates="None"/>\u000a    <Param name="Show info dlg" val="True" valType="bool" updates="None"/>\u000a    <Param name="Save wide csv file" val="True" valType="bool" updates="None"/>\u000a    <Param name="Save psydat file" val="True" valType="bool" updates="None"/>\u000a    <Param name="expName" val="Arguments" valType="str" updates="None"/>\u000a    <Param name="logging level" val="exp" valType="code" updates="None"/>\u000a    <Param name="blendMode" val="avg" valType="str" updates="None"/>\u000a    <Param name="Save excel file" val="False" valType="bool" updates="None"/>\u000a    <Param name="Units" val="use prefs" valType="str" updates="None"/>\u000a    <Param name="Save log file" val="True" valType="bool" updates="None"/>\u000a    <Param name="Screen" val="1" valType="num" updates="None"/>\u000a  </Settings>\u000a  <Routines>\u000a    <Routine name="code2">\u000a      <CodeComponent name="read_CSV2">\u000a        <Param name="Begin Experiment" val="" valType="extendedCode" updates="constant"/>\u000a        <Param name="name" val="read_CSV2" valType="code" updates="None"/>\u000a        <Param name="Each Frame" val="" valType="extendedCode" updates="constant"/>\u000a        <Param name="Begin Routine" val="words = words.replace('&quot;','')" valType="extendedCode" updates="constant"/>\u000a        <Param name="End Routine" val="" valType="extendedCode" updates="constant"/>\u000a        <Param name="End Experiment" val="" valType="extendedCode" updates="constant"/>\u000a      </CodeComponent>\u000a    </Routine>\u000a    <Routine name="code">\u000a      <CodeComponent name="read_CSV">\u000a        <Param name="Begin Experiment" val="" valType="extendedCode" updates="constant"/>\u000a        <Param name="name" val="read_CSV" valType="code" updates="None"/>\u000a        <Param name="Each Frame" val="" valType="extendedCode" updates="constant"/>\u000a        <Param name="Begin Routine" val="argument = argument.replace('&quot;', '')" valType="extendedCode" updates="constant"/>\u000a        <Param name="End Routine" val="" valType="extendedCode" updates="constant"/>\u000a        <Param name="End Experiment" val="" valType="extendedCode" updates="constant"/>\u000a      </CodeComponent>\u000a    </Routine>\u000a    <Routine name="end">\u000a      <TextComponent name="End">\u000a        <Param name="opacity" val="1" valType="code" updates="constant"/>\u000a        <Param name="colorSpace" val="rgb" valType="str" updates="constant"/>\u000a        <Param name="name" val="End" valType="code" updates="None"/>\u000a        <Param name="wrapWidth" val="35" valType="code" updates="constant"/>\u000a        <Param name="color" val="white" valType="str" updates="constant"/>\u000a        <Param name="text" val="Thanks for participating!&#10;&#10;Please turn around and tell the experimenter that you have finished!" valType="str" updates="constant"/>\u000a        <Param name="stopVal" val="5" valType="code" updates="constant"/>\u000a        <Param name="durationEstim" val="" valType="code" updates="None"/>\u000a        <Param name="pos" val="[0, 0]" valType="code" updates="constant"/>\u000a        <Param name="flip" val="" valType="str" updates="constant"/>\u000a        <Param name="startEstim" val="" valType="code" updates="None"/>\u000a        <Param name="units" val="cm" valType="str" updates="None"/>\u000a        <Param name="startType" val="time (s)" valType="str" updates="None"/>\u000a        <Param name="ori" val="0" valType="code" updates="constant"/>\u000a        <Param name="stopType" val="duration (s)" valType="str" updates="None"/>\u000a        <Param name="startVal" val="0.0" valType="code" updates="None"/>\u000a        <Param name="font" val="Arial" valType="str" updates="constant"/>\u000a        <Param name="letterHeight" val="1" valType="code" updates="constant"/>\u000a      </TextComponent>\u000a    </Routine>\u000a    <Routine name="next_arg">\u000a      <TextComponent name="text_3">\u000a        <Param name="opacity" val="1" valType="code" updates="constant"/>\u000a        <Param name="colorSpace" val="rgb" valType="str" updates="constant"/>\u000a        <Param name="name" val="text_3" valType="code" updates="None"/>\u000a        <Param name="wrapWidth" val="" valType="code" updates="constant"/>\u000a        <Param name="color" val="white" valType="str" updates="constant"/>\u000a        <Param name="text" val="Press SPACE when you are ready to read the next argument." valType="str" updates="constant"/>\u000a        <Param name="stopVal" val="" valType="code" updates="constant"/>\u000a        <Param name="durationEstim" val="" valType="code" updates="None"/>\u000a        <Param name="pos" val="[0, 0]" valType="code" updates="constant"/>\u000a        <Param name="flip" val="" valType="str" updates="constant"/>\u000a        <Param name="startEstim" val="" valType="code" updates="None"/>\u000a        <Param name="units" val="from exp settings" valType="str" updates="None"/>\u000a        <Param name="startType" val="time (s)" valType="str" updates="None"/>\u000a        <Param name="ori" val="0" valType="code" updates="constant"/>\u000a        <Param name="stopType" val="duration (s)" valType="str" updates="None"/>\u000a        <Param name="startVal" val="0.5" valType="code" updates="None"/>\u000a        <Param name="font" val="Arial" valType="str" updates="constant"/>\u000a        <Param name="letterHeight" val="0.1" valType="code" updates="constant"/>\u000a      </TextComponent>\u000a      <KeyboardComponent name="Next_Argument">\u000a        <Param name="correctAns" val="" valType="str" updates="constant"/>\u000a        <Param name="storeCorrect" val="False" valType="bool" updates="constant"/>\u000a        <Param name="name" val="Next_Argument" valType="code" updates="None"/>\u000a        <Param name="stopVal" val="" valType="code" updates="constant"/>\u000a        <Param name="durationEstim" val="" valType="code" updates="None"/>\u000a        <Param name="forceEndRoutine" val="True" valType="bool" updates="constant"/>\u000a        <Param name="startEstim" val="" valType="code" updates="None"/>\u000a        <Param name="discard previous" val="True" valType="bool" updates="constant"/>\u000a        <Param name="startType" val="time (s)" valType="str" updates="None"/>\u000a        <Param name="allowedKeys" val="'space'" valType="code" updates="constant"/>\u000a        <Param name="stopType" val="duration (s)" valType="str" updates="None"/>\u000a        <Param name="startVal" val="0.5" valType="code" updates="None"/>\u000a        <Param name="store" val="nothing" valType="str" updates="constant"/>\u000a      </KeyboardComponent>\u000a    </Routine>\u000a    <Routine name="question">\u000a      <TextComponent name="question_text">\u000a        <Param name="opacity" val="1" valType="code" updates="constant"/>\u000a        <Param name="colorSpace" val="rgb" valType="str" updates="constant"/>\u000a        <Param name="name" val="question_text" valType="code" updates="None"/>\u000a        <Param name="wrapWidth" val="35" valType="code" updates="constant"/>\u000a        <Param name="color" val="white" valType="str" updates="constant"/>\u000a        <Param name="text" val="$question" valType="str" updates="set every repeat"/>\u000a        <Param name="stopVal" val="" valType="code" updates="constant"/>\u000a        <Param name="durationEstim" val="" valType="code" updates="None"/>\u000a        <Param name="pos" val="[0, 0]" valType="code" updates="constant"/>\u000a        <Param name="flip" val="" valType="str" updates="constant"/>\u000a        <Param name="startEstim" val="" valType="code" updates="None"/>\u000a        <Param name="units" val="cm" valType="str" updates="None"/>\u000a        <Param name="startType" val="time (s)" valType="str" updates="None"/>\u000a        <Param name="ori" val="0" valType="code" updates="constant"/>\u000a        <Param name="stopType" val="duration (s)" valType="str" updates="None"/>\u000a        <Param name="startVal" val="0.5" valType="code" updates="None"/>\u000a        <Param name="font" val="Arial" valType="str" updates="constant"/>\u000a        <Param name="letterHeight" val="1" valType="code" updates="constant"/>\u000a      </TextComponent>\u000a      <KeyboardComponent name="rating">\u000a        <Param name="correctAns" val="" valType="str" updates="constant"/>\u000a        <Param name="storeCorrect" val="False" valType="bool" updates="constant"/>\u000a        <Param name="name" val="rating" valType="code" updates="None"/>\u000a        <Param name="stopVal" val="" valType="code" updates="constant"/>\u000a        <Param name="durationEstim" val="" valType="code" updates="None"/>\u000a        <Param name="forceEndRoutine" val="True" valType="bool" updates="constant"/>\u000a        <Param name="startEstim" val="" valType="code" updates="None"/>\u000a        <Param name="discard previous" val="True" valType="bool" updates="constant"/>\u000a        <Param name="startType" val="time (s)" valType="str" updates="None"/>\u000a        <Param name="allowedKeys" val="'1','2','3','4','5','6','7','8','9'" valType="code" updates="constant"/>\u000a        <Param name="stopType" val="duration (s)" valType="str" updates="None"/>\u000a        <Param name="startVal" val="0.5" valType="code" updates="None"/>\u000a        <Param name="store" val="last key" valType="str" updates="constant"/>\u000a      </KeyboardComponent>\u000a    </Routine>\u000a    <Routine name="argument">\u000a      <ImageComponent name="text_image">\u000a        <Param name="opacity" val="1" valType="code" updates="constant"/>\u000a        <Param name="flipVert" val="False" valType="bool" updates="constant"/>\u000a        <Param name="colorSpace" val="rgb" valType="str" updates="constant"/>\u000a        <Param name="name" val="text_image" valType="code" updates="constant"/>\u000a        <Param name="color" val="$[1,1,1]" valType="str" updates="constant"/>\u000a        <Param name="stopVal" val="1.0" valType="code" updates="constant"/>\u000a        <Param name="durationEstim" val="" valType="code" updates="None"/>\u000a        <Param name="mask" val="None" valType="str" updates="constant"/>\u000a        <Param name="pos" val="[0, 0]" valType="code" updates="constant"/>\u000a        <Param name="interpolate" val="" valType="str" updates="constant"/>\u000a        <Param name="startEstim" val="" valType="code" updates="None"/>\u000a        <Param name="units" val="from exp settings" valType="str" updates="None"/>\u000a        <Param name="texture resolution" val="128" valType="code" updates="constant"/>\u000a        <Param name="startType" val="time (s)" valType="str" updates="None"/>\u000a        <Param name="ori" val="0" valType="code" updates="constant"/>\u000a        <Param name="stopType" val="duration (s)" valType="str" updates="None"/>\u000a        <Param name="startVal" val="0.0" valType="code" updates="None"/>\u000a        <Param name="flipHoriz" val="False" valType="bool" updates="constant"/>\u000a        <Param name="image" val="$words" valType="str" updates="set every repeat"/>\u000a        <Param name="size" val="[.25, .125]" valType="code" updates="constant"/>\u000a      </ImageComponent>\u000a    </Routine>\u000a    <Routine name="next_ques"/>\u000a    <Routine name="pause">\u000a      <TextComponent name="text_2">\u000a        <Param name="opacity" val="1" valType="code" updates="constant"/>\u000a        <Param name="colorSpace" val="rgb" valType="str" updates="constant"/>\u000a        <Param name="name" val="text_2" valType="code" updates="None"/>\u000a        <Param name="wrapWidth" val="" valType="code" updates="constant"/>\u000a        <Param name="color" val="white" valType="str" updates="constant"/>\u000a        <Param name="text" val="" valType="str" updates="constant"/>\u000a        <Param name="stopVal" val="1.5" valType="code" updates="constant"/>\u000a        <Param name="durationEstim" val="" valType="code" updates="None"/>\u000a        <Param name="pos" val="[0, 0]" valType="code" updates="constant"/>\u000a        <Param name="flip" val="" valType="str" updates="constant"/>\u000a        <Param name="startEstim" val="" valType="code" updates="None"/>\u000a        <Param name="units" val="from exp settings" valType="str" updates="None"/>\u000a        <Param name="startType" val="time (s)" valType="str" updates="None"/>\u000a        <Param name="ori" val="0" valType="code" updates="constant"/>\u000a        <Param name="stopType" val="duration (s)" valType="str" updates="None"/>\u000a        <Param name="startVal" val="0.0" valType="code" updates="None"/>\u000a        <Param name="font" val="Arial" valType="str" updates="constant"/>\u000a        <Param name="letterHeight" val="0.1" valType="code" updates="constant"/>\u000a      </TextComponent>\u000a    </Routine>\u000a    <Routine name="instructions">\u000a      <TextComponent name="Instructions">\u000a        <Param name="opacity" val="1" valType="code" updates="constant"/>\u000a        <Param name="colorSpace" val="rgb" valType="str" updates="constant"/>\u000a        <Param name="name" val="Instructions" valType="code" updates="None"/>\u000a        <Param name="wrapWidth" val="35" valType="code" updates="constant"/>\u000a        <Param name="color" val="white" valType="str" updates="constant"/>\u000a        <Param name="text" val="$text" valType="str" updates="set every repeat"/>\u000a        <Param name="stopVal" val="" valType="code" updates="constant"/>\u000a        <Param name="durationEstim" val="" valType="code" updates="None"/>\u000a        <Param name="pos" val="[0, 5]" valType="code" updates="constant"/>\u000a        <Param name="flip" val="" valType="str" updates="constant"/>\u000a        <Param name="startEstim" val="" valType="code" updates="None"/>\u000a        <Param name="units" val="cm" valType="str" updates="None"/>\u000a        <Param name="startType" val="time (s)" valType="str" updates="None"/>\u000a        <Param name="ori" val="0" valType="code" updates="constant"/>\u000a        <Param name="stopType" val="duration (s)" valType="str" updates="None"/>\u000a        <Param name="startVal" val="0.0" valType="code" updates="None"/>\u000a        <Param name="font" val="Arial" valType="str" updates="constant"/>\u000a        <Param name="letterHeight" val="1" valType="code" updates="constant"/>\u000a      </TextComponent>\u000a      <KeyboardComponent name="Next_Instr">\u000a        <Param name="correctAns" val="" valType="str" updates="constant"/>\u000a        <Param name="storeCorrect" val="False" valType="bool" updates="constant"/>\u000a        <Param name="name" val="Next_Instr" valType="code" updates="None"/>\u000a        <Param name="stopVal" val="" valType="code" updates="constant"/>\u000a        <Param name="durationEstim" val="" valType="code" updates="None"/>\u000a        <Param name="forceEndRoutine" val="True" valType="bool" updates="constant"/>\u000a        <Param name="startEstim" val="" valType="code" updates="None"/>\u000a        <Param name="discard previous" val="True" valType="bool" updates="constant"/>\u000a        <Param name="startType" val="time (s)" valType="str" updates="None"/>\u000a        <Param name="allowedKeys" val="'space'" valType="code" updates="constant"/>\u000a        <Param name="stopType" val="duration (s)" valType="str" updates="None"/>\u000a        <Param name="startVal" val="0.0" valType="code" updates="None"/>\u000a        <Param name="store" val="nothing" valType="str" updates="constant"/>\u000a      </KeyboardComponent>\u000a      <TextComponent name="Space_Continue">\u000a        <Param name="opacity" val="1" valType="code" updates="constant"/>\u000a        <Param name="colorSpace" val="rgb" valType="str" updates="constant"/>\u000a        <Param name="name" val="Space_Continue" valType="code" updates="None"/>\u000a        <Param name="wrapWidth" val="35" valType="code" updates="constant"/>\u000a        <Param name="color" val="white" valType="str" updates="constant"/>\u000a        <Param name="text" val="Press SPACE to continue" valType="str" updates="constant"/>\u000a        <Param name="stopVal" val="" valType="code" updates="constant"/>\u000a        <Param name="durationEstim" val="" valType="code" updates="None"/>\u000a        <Param name="pos" val="[0, -7]" valType="code" updates="constant"/>\u000a        <Param name="flip" val="" valType="str" updates="constant"/>\u000a        <Param name="startEstim" val="" valType="code" updates="None"/>\u000a        <Param name="units" val="cm" valType="str" updates="None"/>\u000a        <Param name="startType" val="time (s)" valType="str" updates="None"/>\u000a        <Param name="ori" val="0" valType="code" updates="constant"/>\u000a        <Param name="stopType" val="duration (s)" valType="str" updates="None"/>\u000a        <Param name="startVal" val="0.0" valType="code" updates="None"/>\u000a        <Param name="font" val="Arial" valType="str" updates="constant"/>\u000a        <Param name="letterHeight" val="1" valType="code" updates="constant"/>\u000a      </TextComponent>\u000a      <ImageComponent name="Instr_Pic">\u000a        <Param name="opacity" val="1" valType="code" updates="constant"/>\u000a        <Param name="flipVert" val="False" valType="bool" updates="constant"/>\u000a        <Param name="colorSpace" val="rgb" valType="str" updates="constant"/>\u000a        <Param name="name" val="Instr_Pic" valType="code" updates="constant"/>\u000a        <Param name="color" val="$[1,1,1]" valType="str" updates="constant"/>\u000a        <Param name="stopVal" val="" valType="code" updates="constant"/>\u000a        <Param name="durationEstim" val="" valType="code" updates="None"/>\u000a        <Param name="mask" val="None" valType="str" updates="constant"/>\u000a        <Param name="pos" val="$pos" valType="code" updates="set every repeat"/>\u000a        <Param name="interpolate" val="" valType="str" updates="constant"/>\u000a        <Param name="startEstim" val="" valType="code" updates="None"/>\u000a        <Param name="units" val="from exp settings" valType="str" updates="None"/>\u000a        <Param name="texture resolution" val="128" valType="code" updates="constant"/>\u000a        <Param name="startType" val="time (s)" valType="str" updates="None"/>\u000a        <Param name="ori" val="0" valType="code" updates="constant"/>\u000a        <Param name="stopType" val="duration (s)" valType="str" updates="None"/>\u000a        <Param name="startVal" val="0.0" valType="code" updates="None"/>\u000a        <Param name="flipHoriz" val="False" valType="bool" updates="constant"/>\u000a        <Param name="image" val="$image" valType="str" updates="set every repeat"/>\u000a        <Param name="size" val="[0.5, 0.5]" valType="code" updates="constant"/>\u000a      </ImageComponent>\u000a    </Routine>\u000a  </Routines>\u000a  <Flow>\u000a    <LoopInitiator loopType="TrialHandler" name="instr_data">\u000a      <Param name="conditionsFile" val="instructions.xlsx" valType="str" updates="None"/>\u000a      <Param name="name" val="instr_data" valType="code" updates="None"/>\u000a      <Param name="random seed" val="" valType="code" updates="None"/>\u000a      <Param name="loopType" val="sequential" valType="str" updates="None"/>\u000a      <Param name="nReps" val="1" valType="code" updates="None"/>\u000a      <Param name="endPoints" val="[0, 1]" valType="num" updates="None"/>\u000a      <Param name="conditions" val="[{u'text': u'We are piloting a new method for group-grading exam questions. In this first section you will be reading aloud several arguments taken from LAW 204, Written and Oral Advocacy, taught at the UC Berkeley Law School.', u'image': u'nothing.jpg', u'pos': [20, 20]}, {u'text': u'You will read through student responses taken from the essay portion of the midterm exam. In order to give an objective analysis, you will be asked to read the essay responses aloud. In addition, sentences from each essay response will be presented phrase-by-phrase, not all at once.', u'image': u'nothing.jpg', u'pos': [20, 20]}, {u'text': u'Handwriting has been cropped and digitized into snippets like the one below, each of which contain individual phrases:', u'image': u'words\u005c\u005cexample.jpg', u'pos': [0, 0]}, {u'text': u'These snippets of text will appear on the screen for only one second each. When each phrase appears please read it out loud.', u'image': u'nothing.jpg', u'pos': [20, 20]}, {u'text': u'After you have read through each argument, you will be asked several questions about the complete argument. Please try to answer these questions as objectively as possible, as if you were a teaching assistant grading this exam.', u'image': u'nothing.jpg', u'pos': [20, 20]}, {u'text': u&quot;After this slide you'll begin a practice session in order to familiarize yourself with how to evaluate these arguments. An experimenter will stand by to correct you if you make any mistakes. If you have any questions, please ask the experimenter now.&quot;, u'image': u'nothing.jpg', u'pos': [20, 20]}]" valType="str" updates="None"/>\u000a    </LoopInitiator>\u000a    <Routine name="instructions"/>\u000a    <LoopTerminator name="instr_data"/>\u000a    <Routine name="pause"/>\u000a    <LoopInitiator loopType="TrialHandler" name="arguments_data">\u000a      <Param name="conditionsFile" val="arguments.csv" valType="str" updates="None"/>\u000a      <Param name="name" val="arguments_data" valType="code" updates="None"/>\u000a      <Param name="random seed" val="" valType="code" updates="None"/>\u000a      <Param name="loopType" val="random" valType="str" updates="None"/>\u000a      <Param name="nReps" val="1" valType="code" updates="None"/>\u000a      <Param name="endPoints" val="[0, 1]" valType="num" updates="None"/>\u000a      <Param name="conditions" val="[{'argument': u'clear_01.csv'}, {'argument': u'messy_01.csv'}]" valType="str" updates="None"/>\u000a    </LoopInitiator>\u000a    <Routine name="code"/>\u000a    <LoopInitiator loopType="TrialHandler" name="word_data">\u000a      <Param name="conditionsFile" val="$argument" valType="str" updates="None"/>\u000a      <Param name="name" val="word_data" valType="code" updates="None"/>\u000a      <Param name="random seed" val="" valType="code" updates="None"/>\u000a      <Param name="loopType" val="sequential" valType="str" updates="None"/>\u000a      <Param name="nReps" val="1" valType="code" updates="None"/>\u000a      <Param name="endPoints" val="[0, 1]" valType="num" updates="None"/>\u000a      <Param name="conditions" val="None" valType="str" updates="None"/>\u000a    </LoopInitiator>\u000a    <Routine name="code2"/>\u000a    <Routine name="argument"/>\u000a    <LoopTerminator name="word_data"/>\u000a    <LoopInitiator loopType="TrialHandler" name="questions">\u000a      <Param name="conditionsFile" val="questions.csv" valType="str" updates="None"/>\u000a      <Param name="name" val="questions" valType="code" updates="None"/>\u000a      <Param name="random seed" val="" valType="code" updates="None"/>\u000a      <Param name="loopType" val="random" valType="str" updates="None"/>\u000a      <Param name="nReps" val="1" valType="code" updates="None"/>\u000a      <Param name="endPoints" val="[0, 1]" valType="num" updates="None"/>\u000a      <Param name="conditions" val="None" valType="str" updates="None"/>\u000a    </LoopInitiator>\u000a    <Routine name="question"/>\u000a    <LoopTerminator name="questions"/>\u000a    <Routine name="next_arg"/>\u000a    <LoopTerminator name="arguments_data"/>\u000a    <Routine name="end"/>\u000a  </Flow>\u000a</PsychoPy2experiment>\u000a
p900
sg39
(lp901
sg46
I61206224
sg11
S'questions'
p902
sg6
g7
sg48
I1
sg17
I01
sg18
g19
sg49
g1
(g50
g41
(dp903
g52
g53
(g54
g55
g56
S'b'
tRp904
(I1
(I5
I1
tg58
I00
S'\x00\x00\x80?\x00\x00\x80?\x00\x00\x80?\x00\x00\x80?\x00\x00\x80?'
S'\x00\x00\x00\x00\x00'
Ntbsg15
g73
(g55
(I0
tS'b'
tRp905
(I1
(I5
I1
tg24
(S'O4'
I0
I1
tRp906
(I3
S'|'
NNNI-1
I-1
I63
tbI00
(lp907
S'9'
aS'9'
aS'4'
aS'7'
aS'9'
atbsg16
g53
(g54
g55
g56
S'b'
tRp908
(I1
(I5
I1
tg58
I00
S'Y:\x0b@z\x1b\xb9>\xcb?\xa5>q\x88\xaf>\xeeC\xb0>'
S'\x00\x00\x00\x00\x00'
Ntbsg59
g53
(g54
g55
g56
S'b'
tRp909
(I1
(I5
I1
tg58
I00
S'\x00\x00\x00\x00\x00\x00\x80?\x00\x00@@\x00\x00\x00@\x00\x00\x80@'
S'\x00\x00\x00\x00\x00'
NtbstRp910
(dp911
g63
(dp912
g52
I01
sg15
I00
sg16
I01
sg59
I01
ssg65
g898
sg66
(lp913
g52
ag59
ag15
ag16
asg68
(lp914
I5
aI1
asbsg70
g71
sg72
g73
(g55
(I0
tS'b'
tRp915
(I1
(I5
I1
tg75
I01
S'\x00\x00\x00\x00\x01\x00\x00\x00\x03\x00\x00\x00\x02\x00\x00\x00\x04\x00\x00\x00'
tbsg76
I01
sg77
I1
sg78
I-1
sg79
(lp916
g1
(g40
g41
(dp917
g104
g704
stRp918
ag1
(g40
g41
(dp919
g104
g715
stRp920
ag1
(g40
g41
(dp921
g104
g737
stRp922
ag1
(g40
g41
(dp923
g104
g726
stRp924
ag1
(g40
g41
(dp925
g104
g748
stRp926
asg87
Nsg88
g751
sg90
I5
sg91
I0
sg92
I5
sg93
I01
sbasS'savePickle'
p927
I01
sb.