ccopy_reg
_reconstructor
p1
(cpsychopy.data
ExperimentHandler
p2
c__builtin__
object
p3
NtRp4
(dp5
S'originPath'
p6
S'C:\\Users\\Cameron\\Google Drive\\Experiments\\Clear-Arguments-Experiment\\Arguments.psyexp'
p7
sS'dataFileName'
p8
Vdata/999_Arguments_2014_Sep_15_0310
p9
sS'runtimeInfo'
p10
NsS'name'
p11
S'Arguments'
p12
sS'dataNames'
p13
(lp14
S'rating.keys'
p15
aS'rating.rt'
p16
asS'autoLog'
p17
I01
sS'extraInfo'
p18
(dp19
S'date'
p20
V2014_Sep_15_0310
p21
sS'frameRate'
p22
cnumpy.core.multiarray
scalar
p23
(cnumpy
dtype
p24
(S'f8'
I0
I1
tRp25
(I3
S'<'
NNNI-1
I-1
I0
tbS'\xc64\xf5\xf0\x93\x0fI@'
tRp26
sS'expName'
p27
g12
sS'session'
p28
V001
p29
sS'participant'
p30
V999
p31
ssS'loopsUnfinished'
p32
(lp33
sS'saveWideText'
p34
I01
sS'thisEntry'
p35
(dp36
sS'version'
p37
S''
sS'_paramNamesSoFar'
p38
(lp39
S'text'
p40
aS'argument'
p41
aS'words'
p42
aS'question'
p43
asS'entries'
p44
(lp45
(dp46
g28
g29
sg30
g31
sS'instr_data.thisRepN'
p47
I0
sg40
V"Instructions 1!"
p48
sg22
g26
sS'instr_data.thisTrialN'
p49
I0
sg27
g12
sg20
g21
sS'instr_data.thisN'
p50
I0
sS'instr_data.thisIndex'
p51
g23
(g24
(S'i4'
I0
I1
tRp52
(I3
S'<'
NNNI-1
I-1
I0
tbS'\x00\x00\x00\x00'
tRp53
sa(dp54
g28
g29
sg30
g31
sS'instr_data.thisRepN'
p55
I0
sg40
V"Instructions 2!"
p56
sg22
g26
sS'instr_data.thisTrialN'
p57
I1
sg27
g12
sg20
g21
sS'instr_data.thisN'
p58
I1
sS'instr_data.thisIndex'
p59
g23
(g52
S'\x01\x00\x00\x00'
tRp60
sa(dp61
g28
g29
sg30
g31
sS'instr_data.thisRepN'
p62
I0
sg40
V"Instructions 3!"
p63
sg22
g26
sS'instr_data.thisTrialN'
p64
I2
sg27
g12
sg20
g21
sS'instr_data.thisN'
p65
I2
sS'instr_data.thisIndex'
p66
g23
(g52
S'\x02\x00\x00\x00'
tRp67
sa(dp68
g28
g29
sS'word_data.thisTrialN'
p69
I0
sg27
g12
sS'word_data.thisRepN'
p70
I0
sS'arguments_data.thisTrialN'
p71
I0
sg22
g26
sg41
V"messy_01.csv"
p72
sS'arguments_data.thisIndex'
p73
g23
(g52
S'\x01\x00\x00\x00'
tRp74
sS'word_data.thisIndex'
p75
g23
(g52
S'\x00\x00\x00\x00'
tRp76
sS'arguments_data.thisN'
p77
I0
sg42
V"words\u005cmessy_this.jpg"
p78
sg20
g21
sg30
g31
sS'word_data.thisN'
p79
I0
sS'arguments_data.thisRepN'
p80
I0
sa(dp81
g28
g29
sS'word_data.thisTrialN'
p82
I1
sg27
g12
sS'word_data.thisRepN'
p83
I0
sS'arguments_data.thisTrialN'
p84
I0
sg22
g26
sg41
g72
sS'arguments_data.thisIndex'
p85
g74
sS'word_data.thisIndex'
p86
g23
(g52
S'\x01\x00\x00\x00'
tRp87
sS'arguments_data.thisN'
p88
I0
sg42
V"words\u005cmessy_is.jpg"
p89
sg20
g21
sg30
g31
sS'word_data.thisN'
p90
I1
sS'arguments_data.thisRepN'
p91
I0
sa(dp92
g28
g29
sS'word_data.thisTrialN'
p93
I2
sg27
g12
sS'word_data.thisRepN'
p94
I0
sS'arguments_data.thisTrialN'
p95
I0
sg22
g26
sg41
g72
sS'arguments_data.thisIndex'
p96
g74
sS'word_data.thisIndex'
p97
g23
(g52
S'\x02\x00\x00\x00'
tRp98
sS'arguments_data.thisN'
p99
I0
sg42
V"words\u005cmessy_the.jpg"
p100
sg20
g21
sg30
g31
sS'word_data.thisN'
p101
I2
sS'arguments_data.thisRepN'
p102
I0
sa(dp103
g28
g29
sS'word_data.thisTrialN'
p104
I3
sg27
g12
sS'word_data.thisRepN'
p105
I0
sS'arguments_data.thisTrialN'
p106
I0
sg22
g26
sg41
g72
sS'arguments_data.thisIndex'
p107
g74
sS'word_data.thisIndex'
p108
g23
(g52
S'\x03\x00\x00\x00'
tRp109
sS'arguments_data.thisN'
p110
I0
sg42
V"words\u005cmessy_messy.jpg"
p111
sg20
g21
sg30
g31
sS'word_data.thisN'
p112
I3
sS'arguments_data.thisRepN'
p113
I0
sa(dp114
g28
g29
sS'word_data.thisTrialN'
p115
I4
sg27
g12
sS'word_data.thisRepN'
p116
I0
sS'arguments_data.thisTrialN'
p117
I0
sg22
g26
sg41
g72
sS'arguments_data.thisIndex'
p118
g74
sS'word_data.thisIndex'
p119
g23
(g52
S'\x04\x00\x00\x00'
tRp120
sS'arguments_data.thisN'
p121
I0
sg42
V"words\u005cmessy_argument.jpg"
p122
sg20
g21
sg30
g31
sS'word_data.thisN'
p123
I4
sS'arguments_data.thisRepN'
p124
I0
sa(dp125
g28
g29
sS'questions.thisTrialN'
p126
I0
sg27
g12
sS'questions.thisRepN'
p127
I0
sS'arguments_data.thisTrialN'
p128
I0
sg22
g26
sg43
V"This argument was convincing."
p129
sS'arguments_data.thisIndex'
p130
g74
sg41
g72
sg15
S'1'
sS'questions.thisIndex'
p131
g23
(g52
S'\x00\x00\x00\x00'
tRp132
sS'arguments_data.thisN'
p133
I0
sg16
F3.9060846810898511
sg20
g21
sg30
g31
sS'questions.thisN'
p134
I0
sS'arguments_data.thisRepN'
p135
I0
sa(dp136
g28
g29
sS'questions.thisTrialN'
p137
I1
sg27
g12
sS'questions.thisRepN'
p138
I0
sS'arguments_data.thisTrialN'
p139
I0
sg22
g26
sg43
V"This argument was unconvincing."
p140
sS'arguments_data.thisIndex'
p141
g74
sg41
g72
sg15
S'9'
sS'questions.thisIndex'
p142
g23
(g52
S'\x04\x00\x00\x00'
tRp143
sS'arguments_data.thisN'
p144
I0
sg16
F1.671240909385233
sg20
g21
sg30
g31
sS'questions.thisN'
p145
I1
sS'arguments_data.thisRepN'
p146
I0
sa(dp147
g28
g29
sS'questions.thisTrialN'
p148
I2
sg27
g12
sS'questions.thisRepN'
p149
I0
sS'arguments_data.thisTrialN'
p150
I0
sg22
g26
sg43
V"This argument might be wrong but it was well argued nonetheless."
p151
sS'arguments_data.thisIndex'
p152
g74
sg41
g72
sg15
S'7'
sS'questions.thisIndex'
p153
g23
(g52
S'\x03\x00\x00\x00'
tRp154
sS'arguments_data.thisN'
p155
I0
sg16
F1.7312030059729295
sg20
g21
sg30
g31
sS'questions.thisN'
p156
I2
sS'arguments_data.thisRepN'
p157
I0
sa(dp158
g28
g29
sS'questions.thisTrialN'
p159
I3
sg27
g12
sS'questions.thisRepN'
p160
I0
sS'arguments_data.thisTrialN'
p161
I0
sg22
g26
sg43
V"There were logical flaws in this argument."
p162
sS'arguments_data.thisIndex'
p163
g74
sg41
g72
sg15
S'4'
sS'questions.thisIndex'
p164
g23
(g52
S'\x01\x00\x00\x00'
tRp165
sS'arguments_data.thisN'
p166
I0
sg16
F0.54405079977732385
sg20
g21
sg30
g31
sS'questions.thisN'
p167
I3
sS'arguments_data.thisRepN'
p168
I0
sa(dp169
g28
g29
sS'questions.thisTrialN'
p170
I4
sg27
g12
sS'questions.thisRepN'
p171
I0
sS'arguments_data.thisTrialN'
p172
I0
sg22
g26
sg43
V"This was a well formed argument."
p173
sS'arguments_data.thisIndex'
p174
g74
sg41
g72
sg15
S'7'
sS'questions.thisIndex'
p175
g23
(g52
S'\x02\x00\x00\x00'
tRp176
sS'arguments_data.thisN'
p177
I0
sg16
F0.36314501342349104
sg20
g21
sg30
g31
sS'questions.thisN'
p178
I4
sS'arguments_data.thisRepN'
p179
I0
sa(dp180
g28
g29
sg27
g12
sg30
g31
sS'arguments_data.thisTrialN'
p181
I0
sg22
g26
sg41
g72
sS'arguments_data.thisIndex'
p182
g74
sS'arguments_data.thisN'
p183
I0
sg20
g21
sS'arguments_data.thisRepN'
p184
I0
sa(dp185
g28
g29
sS'word_data.thisTrialN'
p186
I0
sg27
g12
sS'word_data.thisRepN'
p187
I0
sS'arguments_data.thisTrialN'
p188
I1
sg22
g26
sg41
V"clear_01.csv"
p189
sS'arguments_data.thisIndex'
p190
g23
(g52
S'\x00\x00\x00\x00'
tRp191
sS'word_data.thisIndex'
p192
g23
(g52
S'\x00\x00\x00\x00'
tRp193
sS'arguments_data.thisN'
p194
I1
sS'words'
p195
V"words\u005cclear_this.jpg"
p196
sg20
g21
sg30
g31
sS'word_data.thisN'
p197
I0
sS'arguments_data.thisRepN'
p198
I0
sa(dp199
g28
g29
sS'word_data.thisTrialN'
p200
I1
sg27
g12
sS'word_data.thisRepN'
p201
I0
sS'arguments_data.thisTrialN'
p202
I1
sg22
g26
sg41
g189
sS'arguments_data.thisIndex'
p203
g191
sS'word_data.thisIndex'
p204
g23
(g52
S'\x01\x00\x00\x00'
tRp205
sS'arguments_data.thisN'
p206
I1
sg195
V"words\u005cclear_is.jpg"
p207
sg20
g21
sg30
g31
sS'word_data.thisN'
p208
I1
sS'arguments_data.thisRepN'
p209
I0
sa(dp210
g28
g29
sS'word_data.thisTrialN'
p211
I2
sg27
g12
sS'word_data.thisRepN'
p212
I0
sS'arguments_data.thisTrialN'
p213
I1
sg22
g26
sg41
g189
sS'arguments_data.thisIndex'
p214
g191
sS'word_data.thisIndex'
p215
g23
(g52
S'\x02\x00\x00\x00'
tRp216
sS'arguments_data.thisN'
p217
I1
sg195
V"words\u005cclear_the.jpg"
p218
sg20
g21
sg30
g31
sS'word_data.thisN'
p219
I2
sS'arguments_data.thisRepN'
p220
I0
sa(dp221
g28
g29
sS'word_data.thisTrialN'
p222
I3
sg27
g12
sS'word_data.thisRepN'
p223
I0
sS'arguments_data.thisTrialN'
p224
I1
sg22
g26
sg41
g189
sS'arguments_data.thisIndex'
p225
g191
sS'word_data.thisIndex'
p226
g23
(g52
S'\x03\x00\x00\x00'
tRp227
sS'arguments_data.thisN'
p228
I1
sg195
V"words\u005cclear_clear.jpg"
p229
sg20
g21
sg30
g31
sS'word_data.thisN'
p230
I3
sS'arguments_data.thisRepN'
p231
I0
sa(dp232
g28
g29
sS'word_data.thisTrialN'
p233
I4
sg27
g12
sS'word_data.thisRepN'
p234
I0
sS'arguments_data.thisTrialN'
p235
I1
sg22
g26
sg41
g189
sS'arguments_data.thisIndex'
p236
g191
sS'word_data.thisIndex'
p237
g23
(g52
S'\x04\x00\x00\x00'
tRp238
sS'arguments_data.thisN'
p239
I1
sg195
V"words\u005cclear_argument.jpg"
p240
sg20
g21
sg30
g31
sS'word_data.thisN'
p241
I4
sS'arguments_data.thisRepN'
p242
I0
sa(dp243
g28
g29
sS'questions.thisTrialN'
p244
I0
sg27
g12
sS'questions.thisRepN'
p245
I0
sS'arguments_data.thisTrialN'
p246
I1
sg22
g26
sS'question'
p247
V"This was a well formed argument."
p248
sS'arguments_data.thisIndex'
p249
g191
sg41
g189
sg15
S'6'
sS'questions.thisIndex'
p250
g23
(g52
S'\x02\x00\x00\x00'
tRp251
sS'arguments_data.thisN'
p252
I1
sg16
F2.0121542402594059
sg20
g21
sg30
g31
sS'questions.thisN'
p253
I0
sS'arguments_data.thisRepN'
p254
I0
sa(dp255
g28
g29
sS'questions.thisTrialN'
p256
I1
sg27
g12
sS'questions.thisRepN'
p257
I0
sS'arguments_data.thisTrialN'
p258
I1
sg22
g26
sg247
V"This argument was unconvincing."
p259
sS'arguments_data.thisIndex'
p260
g191
sg41
g189
sg15
S'5'
sS'questions.thisIndex'
p261
g23
(g52
S'\x04\x00\x00\x00'
tRp262
sS'arguments_data.thisN'
p263
I1
sg16
F0.22162195702185272
sg20
g21
sg30
g31
sS'questions.thisN'
p264
I1
sS'arguments_data.thisRepN'
p265
I0
sa(dp266
g28
g29
sS'questions.thisTrialN'
p267
I2
sg27
g12
sS'questions.thisRepN'
p268
I0
sS'arguments_data.thisTrialN'
p269
I1
sg22
g26
sg247
V"This argument was convincing."
p270
sS'arguments_data.thisIndex'
p271
g191
sg41
g189
sg15
S'6'
sS'questions.thisIndex'
p272
g23
(g52
S'\x00\x00\x00\x00'
tRp273
sS'arguments_data.thisN'
p274
I1
sg16
F0.18125301513646264
sg20
g21
sg30
g31
sS'questions.thisN'
p275
I2
sS'arguments_data.thisRepN'
p276
I0
sa(dp277
g28
g29
sS'questions.thisTrialN'
p278
I3
sg27
g12
sS'questions.thisRepN'
p279
I0
sS'arguments_data.thisTrialN'
p280
I1
sg22
g26
sg247
V"This argument might be wrong but it was well argued nonetheless."
p281
sS'arguments_data.thisIndex'
p282
g191
sg41
g189
sg15
S'7'
sS'questions.thisIndex'
p283
g23
(g52
S'\x03\x00\x00\x00'
tRp284
sS'arguments_data.thisN'
p285
I1
sg16
F0.20123860000603599
sg20
g21
sg30
g31
sS'questions.thisN'
p286
I3
sS'arguments_data.thisRepN'
p287
I0
sa(dp288
g28
g29
sS'questions.thisTrialN'
p289
I4
sg27
g12
sS'questions.thisRepN'
p290
I0
sS'arguments_data.thisTrialN'
p291
I1
sg22
g26
sg247
V"There were logical flaws in this argument."
p292
sS'arguments_data.thisIndex'
p293
g191
sg41
g189
sg15
S'9'
sS'questions.thisIndex'
p294
g23
(g52
S'\x01\x00\x00\x00'
tRp295
sS'arguments_data.thisN'
p296
I1
sg16
F0.16074227241188055
sg20
g21
sg30
g31
sS'questions.thisN'
p297
I4
sS'arguments_data.thisRepN'
p298
I0
sa(dp299
g28
g29
sg27
g12
sg30
g31
sS'arguments_data.thisTrialN'
p300
I1
sg22
g26
sg41
g189
sS'arguments_data.thisIndex'
p301
g191
sS'arguments_data.thisN'
p302
I1
sg20
g21
sS'arguments_data.thisRepN'
p303
I0
sasS'loops'
p304
(lp305
g1
(cpsychopy.data
TrialHandler
p306
g3
NtRp307
(dp308
S'origin'
p309
V<PsychoPy2experiment version="1.80.03" encoding="utf-8">\u000a  <Settings>\u000a    <Param name="Show mouse" val="False" valType="bool" updates="None"/>\u000a    <Param name="Data filename" val="'data/%s_%s_%s' %(expInfo['participant'], expName, expInfo['date'])" valType="code" updates="None"/>\u000a    <Param name="Monitor" val="testMonitor" valType="str" updates="None"/>\u000a    <Param name="Enable Escape" val="True" valType="bool" updates="None"/>\u000a    <Param name="color" val="$[0,0,0]" valType="str" updates="None"/>\u000a    <Param name="Window size (pixels)" val="[1024, 768]" valType="code" updates="None"/>\u000a    <Param name="Full-screen window" val="True" valType="bool" updates="None"/>\u000a    <Param name="colorSpace" val="rgb" valType="str" updates="None"/>\u000a    <Param name="Experiment info" val="{'participant':'', 'session':'001'}" valType="code" updates="None"/>\u000a    <Param name="Save csv file" val="False" valType="bool" updates="None"/>\u000a    <Param name="Show info dlg" val="True" valType="bool" updates="None"/>\u000a    <Param name="Save wide csv file" val="True" valType="bool" updates="None"/>\u000a    <Param name="Save psydat file" val="True" valType="bool" updates="None"/>\u000a    <Param name="expName" val="Arguments" valType="str" updates="None"/>\u000a    <Param name="logging level" val="exp" valType="code" updates="None"/>\u000a    <Param name="blendMode" val="avg" valType="str" updates="None"/>\u000a    <Param name="Save excel file" val="False" valType="bool" updates="None"/>\u000a    <Param name="Units" val="use prefs" valType="str" updates="None"/>\u000a    <Param name="Save log file" val="True" valType="bool" updates="None"/>\u000a    <Param name="Screen" val="1" valType="num" updates="None"/>\u000a  </Settings>\u000a  <Routines>\u000a    <Routine name="code2">\u000a      <CodeComponent name="read_CSV2">\u000a        <Param name="Begin Experiment" val="" valType="extendedCode" updates="constant"/>\u000a        <Param name="name" val="read_CSV2" valType="code" updates="None"/>\u000a        <Param name="Each Frame" val="" valType="extendedCode" updates="constant"/>\u000a        <Param name="Begin Routine" val="words = words.replace('&quot;','')" valType="extendedCode" updates="constant"/>\u000a        <Param name="End Routine" val="" valType="extendedCode" updates="constant"/>\u000a        <Param name="End Experiment" val="" valType="extendedCode" updates="constant"/>\u000a      </CodeComponent>\u000a    </Routine>\u000a    <Routine name="code">\u000a      <CodeComponent name="read_CSV">\u000a        <Param name="Begin Experiment" val="" valType="extendedCode" updates="constant"/>\u000a        <Param name="name" val="read_CSV" valType="code" updates="None"/>\u000a        <Param name="Each Frame" val="" valType="extendedCode" updates="constant"/>\u000a        <Param name="Begin Routine" val="argument = argument.replace('&quot;', '')" valType="extendedCode" updates="constant"/>\u000a        <Param name="End Routine" val="" valType="extendedCode" updates="constant"/>\u000a        <Param name="End Experiment" val="" valType="extendedCode" updates="constant"/>\u000a      </CodeComponent>\u000a    </Routine>\u000a    <Routine name="end">\u000a      <TextComponent name="End">\u000a        <Param name="opacity" val="1" valType="code" updates="constant"/>\u000a        <Param name="colorSpace" val="rgb" valType="str" updates="constant"/>\u000a        <Param name="name" val="End" valType="code" updates="None"/>\u000a        <Param name="wrapWidth" val="35" valType="code" updates="constant"/>\u000a        <Param name="color" val="white" valType="str" updates="constant"/>\u000a        <Param name="text" val="Thanks for participating!&#10;&#10;Please turn around and tell the experimenter that you have finished!" valType="str" updates="constant"/>\u000a        <Param name="stopVal" val="5" valType="code" updates="constant"/>\u000a        <Param name="durationEstim" val="" valType="code" updates="None"/>\u000a        <Param name="pos" val="[0, 0]" valType="code" updates="constant"/>\u000a        <Param name="flip" val="" valType="str" updates="constant"/>\u000a        <Param name="startEstim" val="" valType="code" updates="None"/>\u000a        <Param name="units" val="cm" valType="str" updates="None"/>\u000a        <Param name="startType" val="time (s)" valType="str" updates="None"/>\u000a        <Param name="ori" val="0" valType="code" updates="constant"/>\u000a        <Param name="stopType" val="duration (s)" valType="str" updates="None"/>\u000a        <Param name="startVal" val="0.0" valType="code" updates="None"/>\u000a        <Param name="font" val="Arial" valType="str" updates="constant"/>\u000a        <Param name="letterHeight" val="1" valType="code" updates="constant"/>\u000a      </TextComponent>\u000a    </Routine>\u000a    <Routine name="next_arg">\u000a      <TextComponent name="text_3">\u000a        <Param name="opacity" val="1" valType="code" updates="constant"/>\u000a        <Param name="colorSpace" val="rgb" valType="str" updates="constant"/>\u000a        <Param name="name" val="text_3" valType="code" updates="None"/>\u000a        <Param name="wrapWidth" val="" valType="code" updates="constant"/>\u000a        <Param name="color" val="white" valType="str" updates="constant"/>\u000a        <Param name="text" val="Press SPACE when you are ready to read the next argument." valType="str" updates="constant"/>\u000a        <Param name="stopVal" val="" valType="code" updates="constant"/>\u000a        <Param name="durationEstim" val="" valType="code" updates="None"/>\u000a        <Param name="pos" val="[0, 0]" valType="code" updates="constant"/>\u000a        <Param name="flip" val="" valType="str" updates="constant"/>\u000a        <Param name="startEstim" val="" valType="code" updates="None"/>\u000a        <Param name="units" val="from exp settings" valType="str" updates="None"/>\u000a        <Param name="startType" val="time (s)" valType="str" updates="None"/>\u000a        <Param name="ori" val="0" valType="code" updates="constant"/>\u000a        <Param name="stopType" val="duration (s)" valType="str" updates="None"/>\u000a        <Param name="startVal" val="0.5" valType="code" updates="None"/>\u000a        <Param name="font" val="Arial" valType="str" updates="constant"/>\u000a        <Param name="letterHeight" val="0.1" valType="code" updates="constant"/>\u000a      </TextComponent>\u000a      <KeyboardComponent name="Next_Argument">\u000a        <Param name="correctAns" val="" valType="str" updates="constant"/>\u000a        <Param name="storeCorrect" val="False" valType="bool" updates="constant"/>\u000a        <Param name="name" val="Next_Argument" valType="code" updates="None"/>\u000a        <Param name="stopVal" val="" valType="code" updates="constant"/>\u000a        <Param name="durationEstim" val="" valType="code" updates="None"/>\u000a        <Param name="forceEndRoutine" val="True" valType="bool" updates="constant"/>\u000a        <Param name="startEstim" val="" valType="code" updates="None"/>\u000a        <Param name="discard previous" val="True" valType="bool" updates="constant"/>\u000a        <Param name="startType" val="time (s)" valType="str" updates="None"/>\u000a        <Param name="allowedKeys" val="'space'" valType="code" updates="constant"/>\u000a        <Param name="stopType" val="duration (s)" valType="str" updates="None"/>\u000a        <Param name="startVal" val="0.5" valType="code" updates="None"/>\u000a        <Param name="store" val="nothing" valType="str" updates="constant"/>\u000a      </KeyboardComponent>\u000a    </Routine>\u000a    <Routine name="question">\u000a      <TextComponent name="question_text">\u000a        <Param name="opacity" val="1" valType="code" updates="constant"/>\u000a        <Param name="colorSpace" val="rgb" valType="str" updates="constant"/>\u000a        <Param name="name" val="question_text" valType="code" updates="None"/>\u000a        <Param name="wrapWidth" val="35" valType="code" updates="constant"/>\u000a        <Param name="color" val="white" valType="str" updates="constant"/>\u000a        <Param name="text" val="$question" valType="str" updates="set every repeat"/>\u000a        <Param name="stopVal" val="" valType="code" updates="constant"/>\u000a        <Param name="durationEstim" val="" valType="code" updates="None"/>\u000a        <Param name="pos" val="[0, 0]" valType="code" updates="constant"/>\u000a        <Param name="flip" val="" valType="str" updates="constant"/>\u000a        <Param name="startEstim" val="" valType="code" updates="None"/>\u000a        <Param name="units" val="cm" valType="str" updates="None"/>\u000a        <Param name="startType" val="time (s)" valType="str" updates="None"/>\u000a        <Param name="ori" val="0" valType="code" updates="constant"/>\u000a        <Param name="stopType" val="duration (s)" valType="str" updates="None"/>\u000a        <Param name="startVal" val="0.5" valType="code" updates="None"/>\u000a        <Param name="font" val="Arial" valType="str" updates="constant"/>\u000a        <Param name="letterHeight" val="1" valType="code" updates="constant"/>\u000a      </TextComponent>\u000a      <KeyboardComponent name="rating">\u000a        <Param name="correctAns" val="" valType="str" updates="constant"/>\u000a        <Param name="storeCorrect" val="False" valType="bool" updates="constant"/>\u000a        <Param name="name" val="rating" valType="code" updates="None"/>\u000a        <Param name="stopVal" val="" valType="code" updates="constant"/>\u000a        <Param name="durationEstim" val="" valType="code" updates="None"/>\u000a        <Param name="forceEndRoutine" val="True" valType="bool" updates="constant"/>\u000a        <Param name="startEstim" val="" valType="code" updates="None"/>\u000a        <Param name="discard previous" val="True" valType="bool" updates="constant"/>\u000a        <Param name="startType" val="time (s)" valType="str" updates="None"/>\u000a        <Param name="allowedKeys" val="'1','2','3','4','5','6','7','8','9'" valType="code" updates="constant"/>\u000a        <Param name="stopType" val="duration (s)" valType="str" updates="None"/>\u000a        <Param name="startVal" val="0.5" valType="code" updates="None"/>\u000a        <Param name="store" val="last key" valType="str" updates="constant"/>\u000a      </KeyboardComponent>\u000a    </Routine>\u000a    <Routine name="argument">\u000a      <ImageComponent name="text_image">\u000a        <Param name="opacity" val="1" valType="code" updates="constant"/>\u000a        <Param name="flipVert" val="False" valType="bool" updates="constant"/>\u000a        <Param name="colorSpace" val="rgb" valType="str" updates="constant"/>\u000a        <Param name="name" val="text_image" valType="code" updates="constant"/>\u000a        <Param name="color" val="$[1,1,1]" valType="str" updates="constant"/>\u000a        <Param name="stopVal" val="1.0" valType="code" updates="constant"/>\u000a        <Param name="durationEstim" val="" valType="code" updates="None"/>\u000a        <Param name="mask" val="None" valType="str" updates="constant"/>\u000a        <Param name="pos" val="[0, 0]" valType="code" updates="constant"/>\u000a        <Param name="interpolate" val="" valType="str" updates="constant"/>\u000a        <Param name="startEstim" val="" valType="code" updates="None"/>\u000a        <Param name="units" val="from exp settings" valType="str" updates="None"/>\u000a        <Param name="texture resolution" val="128" valType="code" updates="constant"/>\u000a        <Param name="startType" val="time (s)" valType="str" updates="None"/>\u000a        <Param name="ori" val="0" valType="code" updates="constant"/>\u000a        <Param name="stopType" val="duration (s)" valType="str" updates="None"/>\u000a        <Param name="startVal" val="0.0" valType="code" updates="None"/>\u000a        <Param name="flipHoriz" val="False" valType="bool" updates="constant"/>\u000a        <Param name="image" val="$words" valType="str" updates="set every repeat"/>\u000a        <Param name="size" val="[1, 1]" valType="code" updates="constant"/>\u000a      </ImageComponent>\u000a    </Routine>\u000a    <Routine name="next_ques"/>\u000a    <Routine name="pause">\u000a      <TextComponent name="text_2">\u000a        <Param name="opacity" val="1" valType="code" updates="constant"/>\u000a        <Param name="colorSpace" val="rgb" valType="str" updates="constant"/>\u000a        <Param name="name" val="text_2" valType="code" updates="None"/>\u000a        <Param name="wrapWidth" val="" valType="code" updates="constant"/>\u000a        <Param name="color" val="white" valType="str" updates="constant"/>\u000a        <Param name="text" val="" valType="str" updates="constant"/>\u000a        <Param name="stopVal" val="3" valType="code" updates="constant"/>\u000a        <Param name="durationEstim" val="" valType="code" updates="None"/>\u000a        <Param name="pos" val="[0, 0]" valType="code" updates="constant"/>\u000a        <Param name="flip" val="" valType="str" updates="constant"/>\u000a        <Param name="startEstim" val="" valType="code" updates="None"/>\u000a        <Param name="units" val="from exp settings" valType="str" updates="None"/>\u000a        <Param name="startType" val="time (s)" valType="str" updates="None"/>\u000a        <Param name="ori" val="0" valType="code" updates="constant"/>\u000a        <Param name="stopType" val="duration (s)" valType="str" updates="None"/>\u000a        <Param name="startVal" val="0.0" valType="code" updates="None"/>\u000a        <Param name="font" val="Arial" valType="str" updates="constant"/>\u000a        <Param name="letterHeight" val="0.1" valType="code" updates="constant"/>\u000a      </TextComponent>\u000a    </Routine>\u000a    <Routine name="instructions">\u000a      <TextComponent name="Instructions">\u000a        <Param name="opacity" val="1" valType="code" updates="constant"/>\u000a        <Param name="colorSpace" val="rgb" valType="str" updates="constant"/>\u000a        <Param name="name" val="Instructions" valType="code" updates="None"/>\u000a        <Param name="wrapWidth" val="35" valType="code" updates="constant"/>\u000a        <Param name="color" val="white" valType="str" updates="constant"/>\u000a        <Param name="text" val="$text" valType="str" updates="set every repeat"/>\u000a        <Param name="stopVal" val="" valType="code" updates="constant"/>\u000a        <Param name="durationEstim" val="" valType="code" updates="None"/>\u000a        <Param name="pos" val="[0, 5]" valType="code" updates="constant"/>\u000a        <Param name="flip" val="" valType="str" updates="constant"/>\u000a        <Param name="startEstim" val="" valType="code" updates="None"/>\u000a        <Param name="units" val="cm" valType="str" updates="None"/>\u000a        <Param name="startType" val="time (s)" valType="str" updates="None"/>\u000a        <Param name="ori" val="0" valType="code" updates="constant"/>\u000a        <Param name="stopType" val="duration (s)" valType="str" updates="None"/>\u000a        <Param name="startVal" val="0.0" valType="code" updates="None"/>\u000a        <Param name="font" val="Arial" valType="str" updates="constant"/>\u000a        <Param name="letterHeight" val="1" valType="code" updates="constant"/>\u000a      </TextComponent>\u000a      <KeyboardComponent name="Next_Instr">\u000a        <Param name="correctAns" val="" valType="str" updates="constant"/>\u000a        <Param name="storeCorrect" val="False" valType="bool" updates="constant"/>\u000a        <Param name="name" val="Next_Instr" valType="code" updates="None"/>\u000a        <Param name="stopVal" val="" valType="code" updates="constant"/>\u000a        <Param name="durationEstim" val="" valType="code" updates="None"/>\u000a        <Param name="forceEndRoutine" val="True" valType="bool" updates="constant"/>\u000a        <Param name="startEstim" val="" valType="code" updates="None"/>\u000a        <Param name="discard previous" val="True" valType="bool" updates="constant"/>\u000a        <Param name="startType" val="time (s)" valType="str" updates="None"/>\u000a        <Param name="allowedKeys" val="'space'" valType="code" updates="constant"/>\u000a        <Param name="stopType" val="duration (s)" valType="str" updates="None"/>\u000a        <Param name="startVal" val="0.0" valType="code" updates="None"/>\u000a        <Param name="store" val="nothing" valType="str" updates="constant"/>\u000a      </KeyboardComponent>\u000a      <TextComponent name="Space_Continue">\u000a        <Param name="opacity" val="1" valType="code" updates="constant"/>\u000a        <Param name="colorSpace" val="rgb" valType="str" updates="constant"/>\u000a        <Param name="name" val="Space_Continue" valType="code" updates="None"/>\u000a        <Param name="wrapWidth" val="35" valType="code" updates="constant"/>\u000a        <Param name="color" val="white" valType="str" updates="constant"/>\u000a        <Param name="text" val="Press SPACE to continue" valType="str" updates="constant"/>\u000a        <Param name="stopVal" val="" valType="code" updates="constant"/>\u000a        <Param name="durationEstim" val="" valType="code" updates="None"/>\u000a        <Param name="pos" val="[0, -7]" valType="code" updates="constant"/>\u000a        <Param name="flip" val="" valType="str" updates="constant"/>\u000a        <Param name="startEstim" val="" valType="code" updates="None"/>\u000a        <Param name="units" val="cm" valType="str" updates="None"/>\u000a        <Param name="startType" val="time (s)" valType="str" updates="None"/>\u000a        <Param name="ori" val="0" valType="code" updates="constant"/>\u000a        <Param name="stopType" val="duration (s)" valType="str" updates="None"/>\u000a        <Param name="startVal" val="0.0" valType="code" updates="None"/>\u000a        <Param name="font" val="Arial" valType="str" updates="constant"/>\u000a        <Param name="letterHeight" val="1" valType="code" updates="constant"/>\u000a      </TextComponent>\u000a    </Routine>\u000a  </Routines>\u000a  <Flow>\u000a    <LoopInitiator loopType="TrialHandler" name="instr_data">\u000a      <Param name="conditionsFile" val="instructions.csv" valType="str" updates="None"/>\u000a      <Param name="name" val="instr_data" valType="code" updates="None"/>\u000a      <Param name="random seed" val="" valType="code" updates="None"/>\u000a      <Param name="loopType" val="sequential" valType="str" updates="None"/>\u000a      <Param name="nReps" val="1" valType="code" updates="None"/>\u000a      <Param name="endPoints" val="[0, 1]" valType="num" updates="None"/>\u000a      <Param name="conditions" val="[{'text': u'Instructions 1!'}, {'text': u'Instructions 2!'}]" valType="str" updates="None"/>\u000a    </LoopInitiator>\u000a    <Routine name="instructions"/>\u000a    <LoopTerminator name="instr_data"/>\u000a    <Routine name="pause"/>\u000a    <LoopInitiator loopType="TrialHandler" name="arguments_data">\u000a      <Param name="conditionsFile" val="arguments.csv" valType="str" updates="None"/>\u000a      <Param name="name" val="arguments_data" valType="code" updates="None"/>\u000a      <Param name="random seed" val="" valType="code" updates="None"/>\u000a      <Param name="loopType" val="random" valType="str" updates="None"/>\u000a      <Param name="nReps" val="1" valType="code" updates="None"/>\u000a      <Param name="endPoints" val="[0, 1]" valType="num" updates="None"/>\u000a      <Param name="conditions" val="[{'argument': u'clear_01.csv'}, {'argument': u'messy_01.csv'}]" valType="str" updates="None"/>\u000a    </LoopInitiator>\u000a    <Routine name="code"/>\u000a    <LoopInitiator loopType="TrialHandler" name="word_data">\u000a      <Param name="conditionsFile" val="$argument" valType="str" updates="None"/>\u000a      <Param name="name" val="word_data" valType="code" updates="None"/>\u000a      <Param name="random seed" val="" valType="code" updates="None"/>\u000a      <Param name="loopType" val="sequential" valType="str" updates="None"/>\u000a      <Param name="nReps" val="1" valType="code" updates="None"/>\u000a      <Param name="endPoints" val="[0, 1]" valType="num" updates="None"/>\u000a      <Param name="conditions" val="None" valType="str" updates="None"/>\u000a    </LoopInitiator>\u000a    <Routine name="code2"/>\u000a    <Routine name="argument"/>\u000a    <LoopTerminator name="word_data"/>\u000a    <LoopInitiator loopType="TrialHandler" name="questions">\u000a      <Param name="conditionsFile" val="questions.csv" valType="str" updates="None"/>\u000a      <Param name="name" val="questions" valType="code" updates="None"/>\u000a      <Param name="random seed" val="" valType="code" updates="None"/>\u000a      <Param name="loopType" val="random" valType="str" updates="None"/>\u000a      <Param name="nReps" val="1" valType="code" updates="None"/>\u000a      <Param name="endPoints" val="[0, 1]" valType="num" updates="None"/>\u000a      <Param name="conditions" val="None" valType="str" updates="None"/>\u000a    </LoopInitiator>\u000a    <Routine name="question"/>\u000a    <LoopTerminator name="questions"/>\u000a    <Routine name="next_arg"/>\u000a    <LoopTerminator name="arguments_data"/>\u000a    <Routine name="end"/>\u000a  </Flow>\u000a</PsychoPy2experiment>\u000a
p310
sS'thisTrial'
p311
(lp312
sS'_exp'
p313
I59341424
sg11
S'instr_data'
p314
sg6
g7
sS'thisRepN'
p315
I1
sg17
I01
sg18
g19
sS'data'
p316
g1
(cpsychopy.data
DataHandler
p317
c__builtin__
dict
p318
(dp319
S'ran'
p320
cnumpy.ma.core
_mareconstruct
p321
(cnumpy.ma.core
MaskedArray
p322
cnumpy
ndarray
p323
(I0
tp324
S'b'
tRp325
(I1
(I3
I1
tg24
(S'f4'
I0
I1
tRp326
(I3
S'<'
NNNI-1
I-1
I0
tbI00
S'\x00\x00\x80?\x00\x00\x80?\x00\x00\x80?'
S'\x00\x00\x00'
NtbsS'order'
p327
g321
(g322
g323
g324
S'b'
tRp328
(I1
(I3
I1
tg326
I00
S'\x00\x00\x00\x00\x00\x00\x80?\x00\x00\x00@'
S'\x00\x00\x00'
NtbstRp329
(dp330
S'isNumeric'
p331
(dp332
g320
I01
sg327
I01
ssS'trials'
p333
g307
sS'dataTypes'
p334
(lp335
g320
ag327
asS'dataShape'
p336
(lp337
I3
aI1
asbsS'method'
p338
S'sequential'
p339
sS'sequenceIndices'
p340
cnumpy.core.multiarray
_reconstruct
p341
(g323
(I0
tS'b'
tRp342
(I1
(I3
I1
tg52
I00
S'\x00\x00\x00\x00\x01\x00\x00\x00\x02\x00\x00\x00'
tbsS'finished'
p343
I01
sS'nReps'
p344
I1
sS'nRemaining'
p345
I-1
sS'trialList'
p346
(lp347
g1
(cpsychopy.data
TrialType
p348
g318
(dp349
g40
g48
stRp350
ag1
(g348
g318
(dp351
g40
g56
stRp352
ag1
(g348
g318
(dp353
g40
g63
stRp354
asS'seed'
p355
NsS'thisIndex'
p356
g67
sS'thisN'
p357
I3
sS'thisTrialN'
p358
I0
sS'nTotal'
p359
I3
sS'_warnUseOfNext'
p360
I01
sbag1
(g306
g3
NtRp361
(dp362
g309
V<PsychoPy2experiment version="1.80.03" encoding="utf-8">\u000a  <Settings>\u000a    <Param name="Show mouse" val="False" valType="bool" updates="None"/>\u000a    <Param name="Data filename" val="'data/%s_%s_%s' %(expInfo['participant'], expName, expInfo['date'])" valType="code" updates="None"/>\u000a    <Param name="Monitor" val="testMonitor" valType="str" updates="None"/>\u000a    <Param name="Enable Escape" val="True" valType="bool" updates="None"/>\u000a    <Param name="color" val="$[0,0,0]" valType="str" updates="None"/>\u000a    <Param name="Window size (pixels)" val="[1024, 768]" valType="code" updates="None"/>\u000a    <Param name="Full-screen window" val="True" valType="bool" updates="None"/>\u000a    <Param name="colorSpace" val="rgb" valType="str" updates="None"/>\u000a    <Param name="Experiment info" val="{'participant':'', 'session':'001'}" valType="code" updates="None"/>\u000a    <Param name="Save csv file" val="False" valType="bool" updates="None"/>\u000a    <Param name="Show info dlg" val="True" valType="bool" updates="None"/>\u000a    <Param name="Save wide csv file" val="True" valType="bool" updates="None"/>\u000a    <Param name="Save psydat file" val="True" valType="bool" updates="None"/>\u000a    <Param name="expName" val="Arguments" valType="str" updates="None"/>\u000a    <Param name="logging level" val="exp" valType="code" updates="None"/>\u000a    <Param name="blendMode" val="avg" valType="str" updates="None"/>\u000a    <Param name="Save excel file" val="False" valType="bool" updates="None"/>\u000a    <Param name="Units" val="use prefs" valType="str" updates="None"/>\u000a    <Param name="Save log file" val="True" valType="bool" updates="None"/>\u000a    <Param name="Screen" val="1" valType="num" updates="None"/>\u000a  </Settings>\u000a  <Routines>\u000a    <Routine name="code2">\u000a      <CodeComponent name="read_CSV2">\u000a        <Param name="Begin Experiment" val="" valType="extendedCode" updates="constant"/>\u000a        <Param name="name" val="read_CSV2" valType="code" updates="None"/>\u000a        <Param name="Each Frame" val="" valType="extendedCode" updates="constant"/>\u000a        <Param name="Begin Routine" val="words = words.replace('&quot;','')" valType="extendedCode" updates="constant"/>\u000a        <Param name="End Routine" val="" valType="extendedCode" updates="constant"/>\u000a        <Param name="End Experiment" val="" valType="extendedCode" updates="constant"/>\u000a      </CodeComponent>\u000a    </Routine>\u000a    <Routine name="code">\u000a      <CodeComponent name="read_CSV">\u000a        <Param name="Begin Experiment" val="" valType="extendedCode" updates="constant"/>\u000a        <Param name="name" val="read_CSV" valType="code" updates="None"/>\u000a        <Param name="Each Frame" val="" valType="extendedCode" updates="constant"/>\u000a        <Param name="Begin Routine" val="argument = argument.replace('&quot;', '')" valType="extendedCode" updates="constant"/>\u000a        <Param name="End Routine" val="" valType="extendedCode" updates="constant"/>\u000a        <Param name="End Experiment" val="" valType="extendedCode" updates="constant"/>\u000a      </CodeComponent>\u000a    </Routine>\u000a    <Routine name="end">\u000a      <TextComponent name="End">\u000a        <Param name="opacity" val="1" valType="code" updates="constant"/>\u000a        <Param name="colorSpace" val="rgb" valType="str" updates="constant"/>\u000a        <Param name="name" val="End" valType="code" updates="None"/>\u000a        <Param name="wrapWidth" val="35" valType="code" updates="constant"/>\u000a        <Param name="color" val="white" valType="str" updates="constant"/>\u000a        <Param name="text" val="Thanks for participating!&#10;&#10;Please turn around and tell the experimenter that you have finished!" valType="str" updates="constant"/>\u000a        <Param name="stopVal" val="5" valType="code" updates="constant"/>\u000a        <Param name="durationEstim" val="" valType="code" updates="None"/>\u000a        <Param name="pos" val="[0, 0]" valType="code" updates="constant"/>\u000a        <Param name="flip" val="" valType="str" updates="constant"/>\u000a        <Param name="startEstim" val="" valType="code" updates="None"/>\u000a        <Param name="units" val="cm" valType="str" updates="None"/>\u000a        <Param name="startType" val="time (s)" valType="str" updates="None"/>\u000a        <Param name="ori" val="0" valType="code" updates="constant"/>\u000a        <Param name="stopType" val="duration (s)" valType="str" updates="None"/>\u000a        <Param name="startVal" val="0.0" valType="code" updates="None"/>\u000a        <Param name="font" val="Arial" valType="str" updates="constant"/>\u000a        <Param name="letterHeight" val="1" valType="code" updates="constant"/>\u000a      </TextComponent>\u000a    </Routine>\u000a    <Routine name="next_arg">\u000a      <TextComponent name="text_3">\u000a        <Param name="opacity" val="1" valType="code" updates="constant"/>\u000a        <Param name="colorSpace" val="rgb" valType="str" updates="constant"/>\u000a        <Param name="name" val="text_3" valType="code" updates="None"/>\u000a        <Param name="wrapWidth" val="" valType="code" updates="constant"/>\u000a        <Param name="color" val="white" valType="str" updates="constant"/>\u000a        <Param name="text" val="Press SPACE when you are ready to read the next argument." valType="str" updates="constant"/>\u000a        <Param name="stopVal" val="" valType="code" updates="constant"/>\u000a        <Param name="durationEstim" val="" valType="code" updates="None"/>\u000a        <Param name="pos" val="[0, 0]" valType="code" updates="constant"/>\u000a        <Param name="flip" val="" valType="str" updates="constant"/>\u000a        <Param name="startEstim" val="" valType="code" updates="None"/>\u000a        <Param name="units" val="from exp settings" valType="str" updates="None"/>\u000a        <Param name="startType" val="time (s)" valType="str" updates="None"/>\u000a        <Param name="ori" val="0" valType="code" updates="constant"/>\u000a        <Param name="stopType" val="duration (s)" valType="str" updates="None"/>\u000a        <Param name="startVal" val="0.5" valType="code" updates="None"/>\u000a        <Param name="font" val="Arial" valType="str" updates="constant"/>\u000a        <Param name="letterHeight" val="0.1" valType="code" updates="constant"/>\u000a      </TextComponent>\u000a      <KeyboardComponent name="Next_Argument">\u000a        <Param name="correctAns" val="" valType="str" updates="constant"/>\u000a        <Param name="storeCorrect" val="False" valType="bool" updates="constant"/>\u000a        <Param name="name" val="Next_Argument" valType="code" updates="None"/>\u000a        <Param name="stopVal" val="" valType="code" updates="constant"/>\u000a        <Param name="durationEstim" val="" valType="code" updates="None"/>\u000a        <Param name="forceEndRoutine" val="True" valType="bool" updates="constant"/>\u000a        <Param name="startEstim" val="" valType="code" updates="None"/>\u000a        <Param name="discard previous" val="True" valType="bool" updates="constant"/>\u000a        <Param name="startType" val="time (s)" valType="str" updates="None"/>\u000a        <Param name="allowedKeys" val="'space'" valType="code" updates="constant"/>\u000a        <Param name="stopType" val="duration (s)" valType="str" updates="None"/>\u000a        <Param name="startVal" val="0.5" valType="code" updates="None"/>\u000a        <Param name="store" val="nothing" valType="str" updates="constant"/>\u000a      </KeyboardComponent>\u000a    </Routine>\u000a    <Routine name="question">\u000a      <TextComponent name="question_text">\u000a        <Param name="opacity" val="1" valType="code" updates="constant"/>\u000a        <Param name="colorSpace" val="rgb" valType="str" updates="constant"/>\u000a        <Param name="name" val="question_text" valType="code" updates="None"/>\u000a        <Param name="wrapWidth" val="35" valType="code" updates="constant"/>\u000a        <Param name="color" val="white" valType="str" updates="constant"/>\u000a        <Param name="text" val="$question" valType="str" updates="set every repeat"/>\u000a        <Param name="stopVal" val="" valType="code" updates="constant"/>\u000a        <Param name="durationEstim" val="" valType="code" updates="None"/>\u000a        <Param name="pos" val="[0, 0]" valType="code" updates="constant"/>\u000a        <Param name="flip" val="" valType="str" updates="constant"/>\u000a        <Param name="startEstim" val="" valType="code" updates="None"/>\u000a        <Param name="units" val="cm" valType="str" updates="None"/>\u000a        <Param name="startType" val="time (s)" valType="str" updates="None"/>\u000a        <Param name="ori" val="0" valType="code" updates="constant"/>\u000a        <Param name="stopType" val="duration (s)" valType="str" updates="None"/>\u000a        <Param name="startVal" val="0.5" valType="code" updates="None"/>\u000a        <Param name="font" val="Arial" valType="str" updates="constant"/>\u000a        <Param name="letterHeight" val="1" valType="code" updates="constant"/>\u000a      </TextComponent>\u000a      <KeyboardComponent name="rating">\u000a        <Param name="correctAns" val="" valType="str" updates="constant"/>\u000a        <Param name="storeCorrect" val="False" valType="bool" updates="constant"/>\u000a        <Param name="name" val="rating" valType="code" updates="None"/>\u000a        <Param name="stopVal" val="" valType="code" updates="constant"/>\u000a        <Param name="durationEstim" val="" valType="code" updates="None"/>\u000a        <Param name="forceEndRoutine" val="True" valType="bool" updates="constant"/>\u000a        <Param name="startEstim" val="" valType="code" updates="None"/>\u000a        <Param name="discard previous" val="True" valType="bool" updates="constant"/>\u000a        <Param name="startType" val="time (s)" valType="str" updates="None"/>\u000a        <Param name="allowedKeys" val="'1','2','3','4','5','6','7','8','9'" valType="code" updates="constant"/>\u000a        <Param name="stopType" val="duration (s)" valType="str" updates="None"/>\u000a        <Param name="startVal" val="0.5" valType="code" updates="None"/>\u000a        <Param name="store" val="last key" valType="str" updates="constant"/>\u000a      </KeyboardComponent>\u000a    </Routine>\u000a    <Routine name="argument">\u000a      <ImageComponent name="text_image">\u000a        <Param name="opacity" val="1" valType="code" updates="constant"/>\u000a        <Param name="flipVert" val="False" valType="bool" updates="constant"/>\u000a        <Param name="colorSpace" val="rgb" valType="str" updates="constant"/>\u000a        <Param name="name" val="text_image" valType="code" updates="constant"/>\u000a        <Param name="color" val="$[1,1,1]" valType="str" updates="constant"/>\u000a        <Param name="stopVal" val="1.0" valType="code" updates="constant"/>\u000a        <Param name="durationEstim" val="" valType="code" updates="None"/>\u000a        <Param name="mask" val="None" valType="str" updates="constant"/>\u000a        <Param name="pos" val="[0, 0]" valType="code" updates="constant"/>\u000a        <Param name="interpolate" val="" valType="str" updates="constant"/>\u000a        <Param name="startEstim" val="" valType="code" updates="None"/>\u000a        <Param name="units" val="from exp settings" valType="str" updates="None"/>\u000a        <Param name="texture resolution" val="128" valType="code" updates="constant"/>\u000a        <Param name="startType" val="time (s)" valType="str" updates="None"/>\u000a        <Param name="ori" val="0" valType="code" updates="constant"/>\u000a        <Param name="stopType" val="duration (s)" valType="str" updates="None"/>\u000a        <Param name="startVal" val="0.0" valType="code" updates="None"/>\u000a        <Param name="flipHoriz" val="False" valType="bool" updates="constant"/>\u000a        <Param name="image" val="$words" valType="str" updates="set every repeat"/>\u000a        <Param name="size" val="[1, 1]" valType="code" updates="constant"/>\u000a      </ImageComponent>\u000a    </Routine>\u000a    <Routine name="next_ques"/>\u000a    <Routine name="pause">\u000a      <TextComponent name="text_2">\u000a        <Param name="opacity" val="1" valType="code" updates="constant"/>\u000a        <Param name="colorSpace" val="rgb" valType="str" updates="constant"/>\u000a        <Param name="name" val="text_2" valType="code" updates="None"/>\u000a        <Param name="wrapWidth" val="" valType="code" updates="constant"/>\u000a        <Param name="color" val="white" valType="str" updates="constant"/>\u000a        <Param name="text" val="" valType="str" updates="constant"/>\u000a        <Param name="stopVal" val="3" valType="code" updates="constant"/>\u000a        <Param name="durationEstim" val="" valType="code" updates="None"/>\u000a        <Param name="pos" val="[0, 0]" valType="code" updates="constant"/>\u000a        <Param name="flip" val="" valType="str" updates="constant"/>\u000a        <Param name="startEstim" val="" valType="code" updates="None"/>\u000a        <Param name="units" val="from exp settings" valType="str" updates="None"/>\u000a        <Param name="startType" val="time (s)" valType="str" updates="None"/>\u000a        <Param name="ori" val="0" valType="code" updates="constant"/>\u000a        <Param name="stopType" val="duration (s)" valType="str" updates="None"/>\u000a        <Param name="startVal" val="0.0" valType="code" updates="None"/>\u000a        <Param name="font" val="Arial" valType="str" updates="constant"/>\u000a        <Param name="letterHeight" val="0.1" valType="code" updates="constant"/>\u000a      </TextComponent>\u000a    </Routine>\u000a    <Routine name="instructions">\u000a      <TextComponent name="Instructions">\u000a        <Param name="opacity" val="1" valType="code" updates="constant"/>\u000a        <Param name="colorSpace" val="rgb" valType="str" updates="constant"/>\u000a        <Param name="name" val="Instructions" valType="code" updates="None"/>\u000a        <Param name="wrapWidth" val="35" valType="code" updates="constant"/>\u000a        <Param name="color" val="white" valType="str" updates="constant"/>\u000a        <Param name="text" val="$text" valType="str" updates="set every repeat"/>\u000a        <Param name="stopVal" val="" valType="code" updates="constant"/>\u000a        <Param name="durationEstim" val="" valType="code" updates="None"/>\u000a        <Param name="pos" val="[0, 5]" valType="code" updates="constant"/>\u000a        <Param name="flip" val="" valType="str" updates="constant"/>\u000a        <Param name="startEstim" val="" valType="code" updates="None"/>\u000a        <Param name="units" val="cm" valType="str" updates="None"/>\u000a        <Param name="startType" val="time (s)" valType="str" updates="None"/>\u000a        <Param name="ori" val="0" valType="code" updates="constant"/>\u000a        <Param name="stopType" val="duration (s)" valType="str" updates="None"/>\u000a        <Param name="startVal" val="0.0" valType="code" updates="None"/>\u000a        <Param name="font" val="Arial" valType="str" updates="constant"/>\u000a        <Param name="letterHeight" val="1" valType="code" updates="constant"/>\u000a      </TextComponent>\u000a      <KeyboardComponent name="Next_Instr">\u000a        <Param name="correctAns" val="" valType="str" updates="constant"/>\u000a        <Param name="storeCorrect" val="False" valType="bool" updates="constant"/>\u000a        <Param name="name" val="Next_Instr" valType="code" updates="None"/>\u000a        <Param name="stopVal" val="" valType="code" updates="constant"/>\u000a        <Param name="durationEstim" val="" valType="code" updates="None"/>\u000a        <Param name="forceEndRoutine" val="True" valType="bool" updates="constant"/>\u000a        <Param name="startEstim" val="" valType="code" updates="None"/>\u000a        <Param name="discard previous" val="True" valType="bool" updates="constant"/>\u000a        <Param name="startType" val="time (s)" valType="str" updates="None"/>\u000a        <Param name="allowedKeys" val="'space'" valType="code" updates="constant"/>\u000a        <Param name="stopType" val="duration (s)" valType="str" updates="None"/>\u000a        <Param name="startVal" val="0.0" valType="code" updates="None"/>\u000a        <Param name="store" val="nothing" valType="str" updates="constant"/>\u000a      </KeyboardComponent>\u000a      <TextComponent name="Space_Continue">\u000a        <Param name="opacity" val="1" valType="code" updates="constant"/>\u000a        <Param name="colorSpace" val="rgb" valType="str" updates="constant"/>\u000a        <Param name="name" val="Space_Continue" valType="code" updates="None"/>\u000a        <Param name="wrapWidth" val="35" valType="code" updates="constant"/>\u000a        <Param name="color" val="white" valType="str" updates="constant"/>\u000a        <Param name="text" val="Press SPACE to continue" valType="str" updates="constant"/>\u000a        <Param name="stopVal" val="" valType="code" updates="constant"/>\u000a        <Param name="durationEstim" val="" valType="code" updates="None"/>\u000a        <Param name="pos" val="[0, -7]" valType="code" updates="constant"/>\u000a        <Param name="flip" val="" valType="str" updates="constant"/>\u000a        <Param name="startEstim" val="" valType="code" updates="None"/>\u000a        <Param name="units" val="cm" valType="str" updates="None"/>\u000a        <Param name="startType" val="time (s)" valType="str" updates="None"/>\u000a        <Param name="ori" val="0" valType="code" updates="constant"/>\u000a        <Param name="stopType" val="duration (s)" valType="str" updates="None"/>\u000a        <Param name="startVal" val="0.0" valType="code" updates="None"/>\u000a        <Param name="font" val="Arial" valType="str" updates="constant"/>\u000a        <Param name="letterHeight" val="1" valType="code" updates="constant"/>\u000a      </TextComponent>\u000a    </Routine>\u000a  </Routines>\u000a  <Flow>\u000a    <LoopInitiator loopType="TrialHandler" name="instr_data">\u000a      <Param name="conditionsFile" val="instructions.csv" valType="str" updates="None"/>\u000a      <Param name="name" val="instr_data" valType="code" updates="None"/>\u000a      <Param name="random seed" val="" valType="code" updates="None"/>\u000a      <Param name="loopType" val="sequential" valType="str" updates="None"/>\u000a      <Param name="nReps" val="1" valType="code" updates="None"/>\u000a      <Param name="endPoints" val="[0, 1]" valType="num" updates="None"/>\u000a      <Param name="conditions" val="[{'text': u'Instructions 1!'}, {'text': u'Instructions 2!'}]" valType="str" updates="None"/>\u000a    </LoopInitiator>\u000a    <Routine name="instructions"/>\u000a    <LoopTerminator name="instr_data"/>\u000a    <Routine name="pause"/>\u000a    <LoopInitiator loopType="TrialHandler" name="arguments_data">\u000a      <Param name="conditionsFile" val="arguments.csv" valType="str" updates="None"/>\u000a      <Param name="name" val="arguments_data" valType="code" updates="None"/>\u000a      <Param name="random seed" val="" valType="code" updates="None"/>\u000a      <Param name="loopType" val="random" valType="str" updates="None"/>\u000a      <Param name="nReps" val="1" valType="code" updates="None"/>\u000a      <Param name="endPoints" val="[0, 1]" valType="num" updates="None"/>\u000a      <Param name="conditions" val="[{'argument': u'clear_01.csv'}, {'argument': u'messy_01.csv'}]" valType="str" updates="None"/>\u000a    </LoopInitiator>\u000a    <Routine name="code"/>\u000a    <LoopInitiator loopType="TrialHandler" name="word_data">\u000a      <Param name="conditionsFile" val="$argument" valType="str" updates="None"/>\u000a      <Param name="name" val="word_data" valType="code" updates="None"/>\u000a      <Param name="random seed" val="" valType="code" updates="None"/>\u000a      <Param name="loopType" val="sequential" valType="str" updates="None"/>\u000a      <Param name="nReps" val="1" valType="code" updates="None"/>\u000a      <Param name="endPoints" val="[0, 1]" valType="num" updates="None"/>\u000a      <Param name="conditions" val="None" valType="str" updates="None"/>\u000a    </LoopInitiator>\u000a    <Routine name="code2"/>\u000a    <Routine name="argument"/>\u000a    <LoopTerminator name="word_data"/>\u000a    <LoopInitiator loopType="TrialHandler" name="questions">\u000a      <Param name="conditionsFile" val="questions.csv" valType="str" updates="None"/>\u000a      <Param name="name" val="questions" valType="code" updates="None"/>\u000a      <Param name="random seed" val="" valType="code" updates="None"/>\u000a      <Param name="loopType" val="random" valType="str" updates="None"/>\u000a      <Param name="nReps" val="1" valType="code" updates="None"/>\u000a      <Param name="endPoints" val="[0, 1]" valType="num" updates="None"/>\u000a      <Param name="conditions" val="None" valType="str" updates="None"/>\u000a    </LoopInitiator>\u000a    <Routine name="question"/>\u000a    <LoopTerminator name="questions"/>\u000a    <Routine name="next_arg"/>\u000a    <LoopTerminator name="arguments_data"/>\u000a    <Routine name="end"/>\u000a  </Flow>\u000a</PsychoPy2experiment>\u000a
p363
sg311
(lp364
sg313
I59341424
sg11
S'arguments_data'
p365
sg6
g7
sg315
I1
sg17
I01
sg18
g19
sg316
g1
(g317
g318
(dp366
g320
g321
(g322
g323
g324
S'b'
tRp367
(I1
(I2
I1
tg326
I00
S'\x00\x00\x80?\x00\x00\x80?'
S'\x00\x00'
Ntbsg327
g321
(g322
g323
g324
S'b'
tRp368
(I1
(I2
I1
tg326
I00
S'\x00\x00\x80?\x00\x00\x00\x00'
S'\x00\x00'
NtbstRp369
(dp370
g331
(dp371
g320
I01
sg327
I01
ssg333
g361
sg334
(lp372
g320
ag327
asg336
(lp373
I2
aI1
asbsg338
Vrandom
p374
sg340
g341
(g323
(I0
tS'b'
tRp375
(I1
(I2
I1
tg52
I01
S'\x01\x00\x00\x00\x00\x00\x00\x00'
tbsg343
I01
sg344
I1
sg345
I-1
sg346
(lp376
g1
(g348
g318
(dp377
g41
g189
stRp378
ag1
(g348
g318
(dp379
g41
g72
stRp380
asg355
Nsg356
g191
sg357
I2
sg358
I0
sg359
I2
sg360
I01
sbag1
(g306
g3
NtRp381
(dp382
g309
V<PsychoPy2experiment version="1.80.03" encoding="utf-8">\u000a  <Settings>\u000a    <Param name="Show mouse" val="False" valType="bool" updates="None"/>\u000a    <Param name="Data filename" val="'data/%s_%s_%s' %(expInfo['participant'], expName, expInfo['date'])" valType="code" updates="None"/>\u000a    <Param name="Monitor" val="testMonitor" valType="str" updates="None"/>\u000a    <Param name="Enable Escape" val="True" valType="bool" updates="None"/>\u000a    <Param name="color" val="$[0,0,0]" valType="str" updates="None"/>\u000a    <Param name="Window size (pixels)" val="[1024, 768]" valType="code" updates="None"/>\u000a    <Param name="Full-screen window" val="True" valType="bool" updates="None"/>\u000a    <Param name="colorSpace" val="rgb" valType="str" updates="None"/>\u000a    <Param name="Experiment info" val="{'participant':'', 'session':'001'}" valType="code" updates="None"/>\u000a    <Param name="Save csv file" val="False" valType="bool" updates="None"/>\u000a    <Param name="Show info dlg" val="True" valType="bool" updates="None"/>\u000a    <Param name="Save wide csv file" val="True" valType="bool" updates="None"/>\u000a    <Param name="Save psydat file" val="True" valType="bool" updates="None"/>\u000a    <Param name="expName" val="Arguments" valType="str" updates="None"/>\u000a    <Param name="logging level" val="exp" valType="code" updates="None"/>\u000a    <Param name="blendMode" val="avg" valType="str" updates="None"/>\u000a    <Param name="Save excel file" val="False" valType="bool" updates="None"/>\u000a    <Param name="Units" val="use prefs" valType="str" updates="None"/>\u000a    <Param name="Save log file" val="True" valType="bool" updates="None"/>\u000a    <Param name="Screen" val="1" valType="num" updates="None"/>\u000a  </Settings>\u000a  <Routines>\u000a    <Routine name="code2">\u000a      <CodeComponent name="read_CSV2">\u000a        <Param name="Begin Experiment" val="" valType="extendedCode" updates="constant"/>\u000a        <Param name="name" val="read_CSV2" valType="code" updates="None"/>\u000a        <Param name="Each Frame" val="" valType="extendedCode" updates="constant"/>\u000a        <Param name="Begin Routine" val="words = words.replace('&quot;','')" valType="extendedCode" updates="constant"/>\u000a        <Param name="End Routine" val="" valType="extendedCode" updates="constant"/>\u000a        <Param name="End Experiment" val="" valType="extendedCode" updates="constant"/>\u000a      </CodeComponent>\u000a    </Routine>\u000a    <Routine name="code">\u000a      <CodeComponent name="read_CSV">\u000a        <Param name="Begin Experiment" val="" valType="extendedCode" updates="constant"/>\u000a        <Param name="name" val="read_CSV" valType="code" updates="None"/>\u000a        <Param name="Each Frame" val="" valType="extendedCode" updates="constant"/>\u000a        <Param name="Begin Routine" val="argument = argument.replace('&quot;', '')" valType="extendedCode" updates="constant"/>\u000a        <Param name="End Routine" val="" valType="extendedCode" updates="constant"/>\u000a        <Param name="End Experiment" val="" valType="extendedCode" updates="constant"/>\u000a      </CodeComponent>\u000a    </Routine>\u000a    <Routine name="end">\u000a      <TextComponent name="End">\u000a        <Param name="opacity" val="1" valType="code" updates="constant"/>\u000a        <Param name="colorSpace" val="rgb" valType="str" updates="constant"/>\u000a        <Param name="name" val="End" valType="code" updates="None"/>\u000a        <Param name="wrapWidth" val="35" valType="code" updates="constant"/>\u000a        <Param name="color" val="white" valType="str" updates="constant"/>\u000a        <Param name="text" val="Thanks for participating!&#10;&#10;Please turn around and tell the experimenter that you have finished!" valType="str" updates="constant"/>\u000a        <Param name="stopVal" val="5" valType="code" updates="constant"/>\u000a        <Param name="durationEstim" val="" valType="code" updates="None"/>\u000a        <Param name="pos" val="[0, 0]" valType="code" updates="constant"/>\u000a        <Param name="flip" val="" valType="str" updates="constant"/>\u000a        <Param name="startEstim" val="" valType="code" updates="None"/>\u000a        <Param name="units" val="cm" valType="str" updates="None"/>\u000a        <Param name="startType" val="time (s)" valType="str" updates="None"/>\u000a        <Param name="ori" val="0" valType="code" updates="constant"/>\u000a        <Param name="stopType" val="duration (s)" valType="str" updates="None"/>\u000a        <Param name="startVal" val="0.0" valType="code" updates="None"/>\u000a        <Param name="font" val="Arial" valType="str" updates="constant"/>\u000a        <Param name="letterHeight" val="1" valType="code" updates="constant"/>\u000a      </TextComponent>\u000a    </Routine>\u000a    <Routine name="next_arg">\u000a      <TextComponent name="text_3">\u000a        <Param name="opacity" val="1" valType="code" updates="constant"/>\u000a        <Param name="colorSpace" val="rgb" valType="str" updates="constant"/>\u000a        <Param name="name" val="text_3" valType="code" updates="None"/>\u000a        <Param name="wrapWidth" val="" valType="code" updates="constant"/>\u000a        <Param name="color" val="white" valType="str" updates="constant"/>\u000a        <Param name="text" val="Press SPACE when you are ready to read the next argument." valType="str" updates="constant"/>\u000a        <Param name="stopVal" val="" valType="code" updates="constant"/>\u000a        <Param name="durationEstim" val="" valType="code" updates="None"/>\u000a        <Param name="pos" val="[0, 0]" valType="code" updates="constant"/>\u000a        <Param name="flip" val="" valType="str" updates="constant"/>\u000a        <Param name="startEstim" val="" valType="code" updates="None"/>\u000a        <Param name="units" val="from exp settings" valType="str" updates="None"/>\u000a        <Param name="startType" val="time (s)" valType="str" updates="None"/>\u000a        <Param name="ori" val="0" valType="code" updates="constant"/>\u000a        <Param name="stopType" val="duration (s)" valType="str" updates="None"/>\u000a        <Param name="startVal" val="0.5" valType="code" updates="None"/>\u000a        <Param name="font" val="Arial" valType="str" updates="constant"/>\u000a        <Param name="letterHeight" val="0.1" valType="code" updates="constant"/>\u000a      </TextComponent>\u000a      <KeyboardComponent name="Next_Argument">\u000a        <Param name="correctAns" val="" valType="str" updates="constant"/>\u000a        <Param name="storeCorrect" val="False" valType="bool" updates="constant"/>\u000a        <Param name="name" val="Next_Argument" valType="code" updates="None"/>\u000a        <Param name="stopVal" val="" valType="code" updates="constant"/>\u000a        <Param name="durationEstim" val="" valType="code" updates="None"/>\u000a        <Param name="forceEndRoutine" val="True" valType="bool" updates="constant"/>\u000a        <Param name="startEstim" val="" valType="code" updates="None"/>\u000a        <Param name="discard previous" val="True" valType="bool" updates="constant"/>\u000a        <Param name="startType" val="time (s)" valType="str" updates="None"/>\u000a        <Param name="allowedKeys" val="'space'" valType="code" updates="constant"/>\u000a        <Param name="stopType" val="duration (s)" valType="str" updates="None"/>\u000a        <Param name="startVal" val="0.5" valType="code" updates="None"/>\u000a        <Param name="store" val="nothing" valType="str" updates="constant"/>\u000a      </KeyboardComponent>\u000a    </Routine>\u000a    <Routine name="question">\u000a      <TextComponent name="question_text">\u000a        <Param name="opacity" val="1" valType="code" updates="constant"/>\u000a        <Param name="colorSpace" val="rgb" valType="str" updates="constant"/>\u000a        <Param name="name" val="question_text" valType="code" updates="None"/>\u000a        <Param name="wrapWidth" val="35" valType="code" updates="constant"/>\u000a        <Param name="color" val="white" valType="str" updates="constant"/>\u000a        <Param name="text" val="$question" valType="str" updates="set every repeat"/>\u000a        <Param name="stopVal" val="" valType="code" updates="constant"/>\u000a        <Param name="durationEstim" val="" valType="code" updates="None"/>\u000a        <Param name="pos" val="[0, 0]" valType="code" updates="constant"/>\u000a        <Param name="flip" val="" valType="str" updates="constant"/>\u000a        <Param name="startEstim" val="" valType="code" updates="None"/>\u000a        <Param name="units" val="cm" valType="str" updates="None"/>\u000a        <Param name="startType" val="time (s)" valType="str" updates="None"/>\u000a        <Param name="ori" val="0" valType="code" updates="constant"/>\u000a        <Param name="stopType" val="duration (s)" valType="str" updates="None"/>\u000a        <Param name="startVal" val="0.5" valType="code" updates="None"/>\u000a        <Param name="font" val="Arial" valType="str" updates="constant"/>\u000a        <Param name="letterHeight" val="1" valType="code" updates="constant"/>\u000a      </TextComponent>\u000a      <KeyboardComponent name="rating">\u000a        <Param name="correctAns" val="" valType="str" updates="constant"/>\u000a        <Param name="storeCorrect" val="False" valType="bool" updates="constant"/>\u000a        <Param name="name" val="rating" valType="code" updates="None"/>\u000a        <Param name="stopVal" val="" valType="code" updates="constant"/>\u000a        <Param name="durationEstim" val="" valType="code" updates="None"/>\u000a        <Param name="forceEndRoutine" val="True" valType="bool" updates="constant"/>\u000a        <Param name="startEstim" val="" valType="code" updates="None"/>\u000a        <Param name="discard previous" val="True" valType="bool" updates="constant"/>\u000a        <Param name="startType" val="time (s)" valType="str" updates="None"/>\u000a        <Param name="allowedKeys" val="'1','2','3','4','5','6','7','8','9'" valType="code" updates="constant"/>\u000a        <Param name="stopType" val="duration (s)" valType="str" updates="None"/>\u000a        <Param name="startVal" val="0.5" valType="code" updates="None"/>\u000a        <Param name="store" val="last key" valType="str" updates="constant"/>\u000a      </KeyboardComponent>\u000a    </Routine>\u000a    <Routine name="argument">\u000a      <ImageComponent name="text_image">\u000a        <Param name="opacity" val="1" valType="code" updates="constant"/>\u000a        <Param name="flipVert" val="False" valType="bool" updates="constant"/>\u000a        <Param name="colorSpace" val="rgb" valType="str" updates="constant"/>\u000a        <Param name="name" val="text_image" valType="code" updates="constant"/>\u000a        <Param name="color" val="$[1,1,1]" valType="str" updates="constant"/>\u000a        <Param name="stopVal" val="1.0" valType="code" updates="constant"/>\u000a        <Param name="durationEstim" val="" valType="code" updates="None"/>\u000a        <Param name="mask" val="None" valType="str" updates="constant"/>\u000a        <Param name="pos" val="[0, 0]" valType="code" updates="constant"/>\u000a        <Param name="interpolate" val="" valType="str" updates="constant"/>\u000a        <Param name="startEstim" val="" valType="code" updates="None"/>\u000a        <Param name="units" val="from exp settings" valType="str" updates="None"/>\u000a        <Param name="texture resolution" val="128" valType="code" updates="constant"/>\u000a        <Param name="startType" val="time (s)" valType="str" updates="None"/>\u000a        <Param name="ori" val="0" valType="code" updates="constant"/>\u000a        <Param name="stopType" val="duration (s)" valType="str" updates="None"/>\u000a        <Param name="startVal" val="0.0" valType="code" updates="None"/>\u000a        <Param name="flipHoriz" val="False" valType="bool" updates="constant"/>\u000a        <Param name="image" val="$words" valType="str" updates="set every repeat"/>\u000a        <Param name="size" val="[1, 1]" valType="code" updates="constant"/>\u000a      </ImageComponent>\u000a    </Routine>\u000a    <Routine name="next_ques"/>\u000a    <Routine name="pause">\u000a      <TextComponent name="text_2">\u000a        <Param name="opacity" val="1" valType="code" updates="constant"/>\u000a        <Param name="colorSpace" val="rgb" valType="str" updates="constant"/>\u000a        <Param name="name" val="text_2" valType="code" updates="None"/>\u000a        <Param name="wrapWidth" val="" valType="code" updates="constant"/>\u000a        <Param name="color" val="white" valType="str" updates="constant"/>\u000a        <Param name="text" val="" valType="str" updates="constant"/>\u000a        <Param name="stopVal" val="3" valType="code" updates="constant"/>\u000a        <Param name="durationEstim" val="" valType="code" updates="None"/>\u000a        <Param name="pos" val="[0, 0]" valType="code" updates="constant"/>\u000a        <Param name="flip" val="" valType="str" updates="constant"/>\u000a        <Param name="startEstim" val="" valType="code" updates="None"/>\u000a        <Param name="units" val="from exp settings" valType="str" updates="None"/>\u000a        <Param name="startType" val="time (s)" valType="str" updates="None"/>\u000a        <Param name="ori" val="0" valType="code" updates="constant"/>\u000a        <Param name="stopType" val="duration (s)" valType="str" updates="None"/>\u000a        <Param name="startVal" val="0.0" valType="code" updates="None"/>\u000a        <Param name="font" val="Arial" valType="str" updates="constant"/>\u000a        <Param name="letterHeight" val="0.1" valType="code" updates="constant"/>\u000a      </TextComponent>\u000a    </Routine>\u000a    <Routine name="instructions">\u000a      <TextComponent name="Instructions">\u000a        <Param name="opacity" val="1" valType="code" updates="constant"/>\u000a        <Param name="colorSpace" val="rgb" valType="str" updates="constant"/>\u000a        <Param name="name" val="Instructions" valType="code" updates="None"/>\u000a        <Param name="wrapWidth" val="35" valType="code" updates="constant"/>\u000a        <Param name="color" val="white" valType="str" updates="constant"/>\u000a        <Param name="text" val="$text" valType="str" updates="set every repeat"/>\u000a        <Param name="stopVal" val="" valType="code" updates="constant"/>\u000a        <Param name="durationEstim" val="" valType="code" updates="None"/>\u000a        <Param name="pos" val="[0, 5]" valType="code" updates="constant"/>\u000a        <Param name="flip" val="" valType="str" updates="constant"/>\u000a        <Param name="startEstim" val="" valType="code" updates="None"/>\u000a        <Param name="units" val="cm" valType="str" updates="None"/>\u000a        <Param name="startType" val="time (s)" valType="str" updates="None"/>\u000a        <Param name="ori" val="0" valType="code" updates="constant"/>\u000a        <Param name="stopType" val="duration (s)" valType="str" updates="None"/>\u000a        <Param name="startVal" val="0.0" valType="code" updates="None"/>\u000a        <Param name="font" val="Arial" valType="str" updates="constant"/>\u000a        <Param name="letterHeight" val="1" valType="code" updates="constant"/>\u000a      </TextComponent>\u000a      <KeyboardComponent name="Next_Instr">\u000a        <Param name="correctAns" val="" valType="str" updates="constant"/>\u000a        <Param name="storeCorrect" val="False" valType="bool" updates="constant"/>\u000a        <Param name="name" val="Next_Instr" valType="code" updates="None"/>\u000a        <Param name="stopVal" val="" valType="code" updates="constant"/>\u000a        <Param name="durationEstim" val="" valType="code" updates="None"/>\u000a        <Param name="forceEndRoutine" val="True" valType="bool" updates="constant"/>\u000a        <Param name="startEstim" val="" valType="code" updates="None"/>\u000a        <Param name="discard previous" val="True" valType="bool" updates="constant"/>\u000a        <Param name="startType" val="time (s)" valType="str" updates="None"/>\u000a        <Param name="allowedKeys" val="'space'" valType="code" updates="constant"/>\u000a        <Param name="stopType" val="duration (s)" valType="str" updates="None"/>\u000a        <Param name="startVal" val="0.0" valType="code" updates="None"/>\u000a        <Param name="store" val="nothing" valType="str" updates="constant"/>\u000a      </KeyboardComponent>\u000a      <TextComponent name="Space_Continue">\u000a        <Param name="opacity" val="1" valType="code" updates="constant"/>\u000a        <Param name="colorSpace" val="rgb" valType="str" updates="constant"/>\u000a        <Param name="name" val="Space_Continue" valType="code" updates="None"/>\u000a        <Param name="wrapWidth" val="35" valType="code" updates="constant"/>\u000a        <Param name="color" val="white" valType="str" updates="constant"/>\u000a        <Param name="text" val="Press SPACE to continue" valType="str" updates="constant"/>\u000a        <Param name="stopVal" val="" valType="code" updates="constant"/>\u000a        <Param name="durationEstim" val="" valType="code" updates="None"/>\u000a        <Param name="pos" val="[0, -7]" valType="code" updates="constant"/>\u000a        <Param name="flip" val="" valType="str" updates="constant"/>\u000a        <Param name="startEstim" val="" valType="code" updates="None"/>\u000a        <Param name="units" val="cm" valType="str" updates="None"/>\u000a        <Param name="startType" val="time (s)" valType="str" updates="None"/>\u000a        <Param name="ori" val="0" valType="code" updates="constant"/>\u000a        <Param name="stopType" val="duration (s)" valType="str" updates="None"/>\u000a        <Param name="startVal" val="0.0" valType="code" updates="None"/>\u000a        <Param name="font" val="Arial" valType="str" updates="constant"/>\u000a        <Param name="letterHeight" val="1" valType="code" updates="constant"/>\u000a      </TextComponent>\u000a    </Routine>\u000a  </Routines>\u000a  <Flow>\u000a    <LoopInitiator loopType="TrialHandler" name="instr_data">\u000a      <Param name="conditionsFile" val="instructions.csv" valType="str" updates="None"/>\u000a      <Param name="name" val="instr_data" valType="code" updates="None"/>\u000a      <Param name="random seed" val="" valType="code" updates="None"/>\u000a      <Param name="loopType" val="sequential" valType="str" updates="None"/>\u000a      <Param name="nReps" val="1" valType="code" updates="None"/>\u000a      <Param name="endPoints" val="[0, 1]" valType="num" updates="None"/>\u000a      <Param name="conditions" val="[{'text': u'Instructions 1!'}, {'text': u'Instructions 2!'}]" valType="str" updates="None"/>\u000a    </LoopInitiator>\u000a    <Routine name="instructions"/>\u000a    <LoopTerminator name="instr_data"/>\u000a    <Routine name="pause"/>\u000a    <LoopInitiator loopType="TrialHandler" name="arguments_data">\u000a      <Param name="conditionsFile" val="arguments.csv" valType="str" updates="None"/>\u000a      <Param name="name" val="arguments_data" valType="code" updates="None"/>\u000a      <Param name="random seed" val="" valType="code" updates="None"/>\u000a      <Param name="loopType" val="random" valType="str" updates="None"/>\u000a      <Param name="nReps" val="1" valType="code" updates="None"/>\u000a      <Param name="endPoints" val="[0, 1]" valType="num" updates="None"/>\u000a      <Param name="conditions" val="[{'argument': u'clear_01.csv'}, {'argument': u'messy_01.csv'}]" valType="str" updates="None"/>\u000a    </LoopInitiator>\u000a    <Routine name="code"/>\u000a    <LoopInitiator loopType="TrialHandler" name="word_data">\u000a      <Param name="conditionsFile" val="$argument" valType="str" updates="None"/>\u000a      <Param name="name" val="word_data" valType="code" updates="None"/>\u000a      <Param name="random seed" val="" valType="code" updates="None"/>\u000a      <Param name="loopType" val="sequential" valType="str" updates="None"/>\u000a      <Param name="nReps" val="1" valType="code" updates="None"/>\u000a      <Param name="endPoints" val="[0, 1]" valType="num" updates="None"/>\u000a      <Param name="conditions" val="None" valType="str" updates="None"/>\u000a    </LoopInitiator>\u000a    <Routine name="code2"/>\u000a    <Routine name="argument"/>\u000a    <LoopTerminator name="word_data"/>\u000a    <LoopInitiator loopType="TrialHandler" name="questions">\u000a      <Param name="conditionsFile" val="questions.csv" valType="str" updates="None"/>\u000a      <Param name="name" val="questions" valType="code" updates="None"/>\u000a      <Param name="random seed" val="" valType="code" updates="None"/>\u000a      <Param name="loopType" val="random" valType="str" updates="None"/>\u000a      <Param name="nReps" val="1" valType="code" updates="None"/>\u000a      <Param name="endPoints" val="[0, 1]" valType="num" updates="None"/>\u000a      <Param name="conditions" val="None" valType="str" updates="None"/>\u000a    </LoopInitiator>\u000a    <Routine name="question"/>\u000a    <LoopTerminator name="questions"/>\u000a    <Routine name="next_arg"/>\u000a    <LoopTerminator name="arguments_data"/>\u000a    <Routine name="end"/>\u000a  </Flow>\u000a</PsychoPy2experiment>\u000a
p383
sg311
(lp384
sg313
I59341424
sg11
S'word_data'
p385
sg6
g7
sg315
I1
sg17
I01
sg18
g19
sg316
g1
(g317
g318
(dp386
g320
g321
(g322
g323
g324
S'b'
tRp387
(I1
(I5
I1
tg326
I00
S'\x00\x00\x80?\x00\x00\x80?\x00\x00\x80?\x00\x00\x80?\x00\x00\x80?'
S'\x00\x00\x00\x00\x00'
Ntbsg327
g321
(g322
g323
g324
S'b'
tRp388
(I1
(I5
I1
tg326
I00
S'\x00\x00\x00\x00\x00\x00\x80?\x00\x00\x00@\x00\x00@@\x00\x00\x80@'
S'\x00\x00\x00\x00\x00'
NtbstRp389
(dp390
g331
(dp391
g320
I01
sg327
I01
ssg333
g381
sg334
(lp392
g320
ag327
asg336
(lp393
I5
aI1
asbsg338
Vsequential
p394
sg340
g341
(g323
(I0
tS'b'
tRp395
(I1
(I5
I1
tg52
I00
S'\x00\x00\x00\x00\x01\x00\x00\x00\x02\x00\x00\x00\x03\x00\x00\x00\x04\x00\x00\x00'
tbsg343
I01
sg344
I1
sg345
I-1
sg346
(lp396
g1
(g348
g318
(dp397
g42
g78
stRp398
ag1
(g348
g318
(dp399
g42
g89
stRp400
ag1
(g348
g318
(dp401
g42
g100
stRp402
ag1
(g348
g318
(dp403
g42
g111
stRp404
ag1
(g348
g318
(dp405
g42
g122
stRp406
asg355
Nsg356
g120
sg357
I5
sg358
I0
sg359
I5
sg360
I01
sbag1
(g306
g3
NtRp407
(dp408
g309
V<PsychoPy2experiment version="1.80.03" encoding="utf-8">\u000a  <Settings>\u000a    <Param name="Show mouse" val="False" valType="bool" updates="None"/>\u000a    <Param name="Data filename" val="'data/%s_%s_%s' %(expInfo['participant'], expName, expInfo['date'])" valType="code" updates="None"/>\u000a    <Param name="Monitor" val="testMonitor" valType="str" updates="None"/>\u000a    <Param name="Enable Escape" val="True" valType="bool" updates="None"/>\u000a    <Param name="color" val="$[0,0,0]" valType="str" updates="None"/>\u000a    <Param name="Window size (pixels)" val="[1024, 768]" valType="code" updates="None"/>\u000a    <Param name="Full-screen window" val="True" valType="bool" updates="None"/>\u000a    <Param name="colorSpace" val="rgb" valType="str" updates="None"/>\u000a    <Param name="Experiment info" val="{'participant':'', 'session':'001'}" valType="code" updates="None"/>\u000a    <Param name="Save csv file" val="False" valType="bool" updates="None"/>\u000a    <Param name="Show info dlg" val="True" valType="bool" updates="None"/>\u000a    <Param name="Save wide csv file" val="True" valType="bool" updates="None"/>\u000a    <Param name="Save psydat file" val="True" valType="bool" updates="None"/>\u000a    <Param name="expName" val="Arguments" valType="str" updates="None"/>\u000a    <Param name="logging level" val="exp" valType="code" updates="None"/>\u000a    <Param name="blendMode" val="avg" valType="str" updates="None"/>\u000a    <Param name="Save excel file" val="False" valType="bool" updates="None"/>\u000a    <Param name="Units" val="use prefs" valType="str" updates="None"/>\u000a    <Param name="Save log file" val="True" valType="bool" updates="None"/>\u000a    <Param name="Screen" val="1" valType="num" updates="None"/>\u000a  </Settings>\u000a  <Routines>\u000a    <Routine name="code2">\u000a      <CodeComponent name="read_CSV2">\u000a        <Param name="Begin Experiment" val="" valType="extendedCode" updates="constant"/>\u000a        <Param name="name" val="read_CSV2" valType="code" updates="None"/>\u000a        <Param name="Each Frame" val="" valType="extendedCode" updates="constant"/>\u000a        <Param name="Begin Routine" val="words = words.replace('&quot;','')" valType="extendedCode" updates="constant"/>\u000a        <Param name="End Routine" val="" valType="extendedCode" updates="constant"/>\u000a        <Param name="End Experiment" val="" valType="extendedCode" updates="constant"/>\u000a      </CodeComponent>\u000a    </Routine>\u000a    <Routine name="code">\u000a      <CodeComponent name="read_CSV">\u000a        <Param name="Begin Experiment" val="" valType="extendedCode" updates="constant"/>\u000a        <Param name="name" val="read_CSV" valType="code" updates="None"/>\u000a        <Param name="Each Frame" val="" valType="extendedCode" updates="constant"/>\u000a        <Param name="Begin Routine" val="argument = argument.replace('&quot;', '')" valType="extendedCode" updates="constant"/>\u000a        <Param name="End Routine" val="" valType="extendedCode" updates="constant"/>\u000a        <Param name="End Experiment" val="" valType="extendedCode" updates="constant"/>\u000a      </CodeComponent>\u000a    </Routine>\u000a    <Routine name="end">\u000a      <TextComponent name="End">\u000a        <Param name="opacity" val="1" valType="code" updates="constant"/>\u000a        <Param name="colorSpace" val="rgb" valType="str" updates="constant"/>\u000a        <Param name="name" val="End" valType="code" updates="None"/>\u000a        <Param name="wrapWidth" val="35" valType="code" updates="constant"/>\u000a        <Param name="color" val="white" valType="str" updates="constant"/>\u000a        <Param name="text" val="Thanks for participating!&#10;&#10;Please turn around and tell the experimenter that you have finished!" valType="str" updates="constant"/>\u000a        <Param name="stopVal" val="5" valType="code" updates="constant"/>\u000a        <Param name="durationEstim" val="" valType="code" updates="None"/>\u000a        <Param name="pos" val="[0, 0]" valType="code" updates="constant"/>\u000a        <Param name="flip" val="" valType="str" updates="constant"/>\u000a        <Param name="startEstim" val="" valType="code" updates="None"/>\u000a        <Param name="units" val="cm" valType="str" updates="None"/>\u000a        <Param name="startType" val="time (s)" valType="str" updates="None"/>\u000a        <Param name="ori" val="0" valType="code" updates="constant"/>\u000a        <Param name="stopType" val="duration (s)" valType="str" updates="None"/>\u000a        <Param name="startVal" val="0.0" valType="code" updates="None"/>\u000a        <Param name="font" val="Arial" valType="str" updates="constant"/>\u000a        <Param name="letterHeight" val="1" valType="code" updates="constant"/>\u000a      </TextComponent>\u000a    </Routine>\u000a    <Routine name="next_arg">\u000a      <TextComponent name="text_3">\u000a        <Param name="opacity" val="1" valType="code" updates="constant"/>\u000a        <Param name="colorSpace" val="rgb" valType="str" updates="constant"/>\u000a        <Param name="name" val="text_3" valType="code" updates="None"/>\u000a        <Param name="wrapWidth" val="" valType="code" updates="constant"/>\u000a        <Param name="color" val="white" valType="str" updates="constant"/>\u000a        <Param name="text" val="Press SPACE when you are ready to read the next argument." valType="str" updates="constant"/>\u000a        <Param name="stopVal" val="" valType="code" updates="constant"/>\u000a        <Param name="durationEstim" val="" valType="code" updates="None"/>\u000a        <Param name="pos" val="[0, 0]" valType="code" updates="constant"/>\u000a        <Param name="flip" val="" valType="str" updates="constant"/>\u000a        <Param name="startEstim" val="" valType="code" updates="None"/>\u000a        <Param name="units" val="from exp settings" valType="str" updates="None"/>\u000a        <Param name="startType" val="time (s)" valType="str" updates="None"/>\u000a        <Param name="ori" val="0" valType="code" updates="constant"/>\u000a        <Param name="stopType" val="duration (s)" valType="str" updates="None"/>\u000a        <Param name="startVal" val="0.5" valType="code" updates="None"/>\u000a        <Param name="font" val="Arial" valType="str" updates="constant"/>\u000a        <Param name="letterHeight" val="0.1" valType="code" updates="constant"/>\u000a      </TextComponent>\u000a      <KeyboardComponent name="Next_Argument">\u000a        <Param name="correctAns" val="" valType="str" updates="constant"/>\u000a        <Param name="storeCorrect" val="False" valType="bool" updates="constant"/>\u000a        <Param name="name" val="Next_Argument" valType="code" updates="None"/>\u000a        <Param name="stopVal" val="" valType="code" updates="constant"/>\u000a        <Param name="durationEstim" val="" valType="code" updates="None"/>\u000a        <Param name="forceEndRoutine" val="True" valType="bool" updates="constant"/>\u000a        <Param name="startEstim" val="" valType="code" updates="None"/>\u000a        <Param name="discard previous" val="True" valType="bool" updates="constant"/>\u000a        <Param name="startType" val="time (s)" valType="str" updates="None"/>\u000a        <Param name="allowedKeys" val="'space'" valType="code" updates="constant"/>\u000a        <Param name="stopType" val="duration (s)" valType="str" updates="None"/>\u000a        <Param name="startVal" val="0.5" valType="code" updates="None"/>\u000a        <Param name="store" val="nothing" valType="str" updates="constant"/>\u000a      </KeyboardComponent>\u000a    </Routine>\u000a    <Routine name="question">\u000a      <TextComponent name="question_text">\u000a        <Param name="opacity" val="1" valType="code" updates="constant"/>\u000a        <Param name="colorSpace" val="rgb" valType="str" updates="constant"/>\u000a        <Param name="name" val="question_text" valType="code" updates="None"/>\u000a        <Param name="wrapWidth" val="35" valType="code" updates="constant"/>\u000a        <Param name="color" val="white" valType="str" updates="constant"/>\u000a        <Param name="text" val="$question" valType="str" updates="set every repeat"/>\u000a        <Param name="stopVal" val="" valType="code" updates="constant"/>\u000a        <Param name="durationEstim" val="" valType="code" updates="None"/>\u000a        <Param name="pos" val="[0, 0]" valType="code" updates="constant"/>\u000a        <Param name="flip" val="" valType="str" updates="constant"/>\u000a        <Param name="startEstim" val="" valType="code" updates="None"/>\u000a        <Param name="units" val="cm" valType="str" updates="None"/>\u000a        <Param name="startType" val="time (s)" valType="str" updates="None"/>\u000a        <Param name="ori" val="0" valType="code" updates="constant"/>\u000a        <Param name="stopType" val="duration (s)" valType="str" updates="None"/>\u000a        <Param name="startVal" val="0.5" valType="code" updates="None"/>\u000a        <Param name="font" val="Arial" valType="str" updates="constant"/>\u000a        <Param name="letterHeight" val="1" valType="code" updates="constant"/>\u000a      </TextComponent>\u000a      <KeyboardComponent name="rating">\u000a        <Param name="correctAns" val="" valType="str" updates="constant"/>\u000a        <Param name="storeCorrect" val="False" valType="bool" updates="constant"/>\u000a        <Param name="name" val="rating" valType="code" updates="None"/>\u000a        <Param name="stopVal" val="" valType="code" updates="constant"/>\u000a        <Param name="durationEstim" val="" valType="code" updates="None"/>\u000a        <Param name="forceEndRoutine" val="True" valType="bool" updates="constant"/>\u000a        <Param name="startEstim" val="" valType="code" updates="None"/>\u000a        <Param name="discard previous" val="True" valType="bool" updates="constant"/>\u000a        <Param name="startType" val="time (s)" valType="str" updates="None"/>\u000a        <Param name="allowedKeys" val="'1','2','3','4','5','6','7','8','9'" valType="code" updates="constant"/>\u000a        <Param name="stopType" val="duration (s)" valType="str" updates="None"/>\u000a        <Param name="startVal" val="0.5" valType="code" updates="None"/>\u000a        <Param name="store" val="last key" valType="str" updates="constant"/>\u000a      </KeyboardComponent>\u000a    </Routine>\u000a    <Routine name="argument">\u000a      <ImageComponent name="text_image">\u000a        <Param name="opacity" val="1" valType="code" updates="constant"/>\u000a        <Param name="flipVert" val="False" valType="bool" updates="constant"/>\u000a        <Param name="colorSpace" val="rgb" valType="str" updates="constant"/>\u000a        <Param name="name" val="text_image" valType="code" updates="constant"/>\u000a        <Param name="color" val="$[1,1,1]" valType="str" updates="constant"/>\u000a        <Param name="stopVal" val="1.0" valType="code" updates="constant"/>\u000a        <Param name="durationEstim" val="" valType="code" updates="None"/>\u000a        <Param name="mask" val="None" valType="str" updates="constant"/>\u000a        <Param name="pos" val="[0, 0]" valType="code" updates="constant"/>\u000a        <Param name="interpolate" val="" valType="str" updates="constant"/>\u000a        <Param name="startEstim" val="" valType="code" updates="None"/>\u000a        <Param name="units" val="from exp settings" valType="str" updates="None"/>\u000a        <Param name="texture resolution" val="128" valType="code" updates="constant"/>\u000a        <Param name="startType" val="time (s)" valType="str" updates="None"/>\u000a        <Param name="ori" val="0" valType="code" updates="constant"/>\u000a        <Param name="stopType" val="duration (s)" valType="str" updates="None"/>\u000a        <Param name="startVal" val="0.0" valType="code" updates="None"/>\u000a        <Param name="flipHoriz" val="False" valType="bool" updates="constant"/>\u000a        <Param name="image" val="$words" valType="str" updates="set every repeat"/>\u000a        <Param name="size" val="[1, 1]" valType="code" updates="constant"/>\u000a      </ImageComponent>\u000a    </Routine>\u000a    <Routine name="next_ques"/>\u000a    <Routine name="pause">\u000a      <TextComponent name="text_2">\u000a        <Param name="opacity" val="1" valType="code" updates="constant"/>\u000a        <Param name="colorSpace" val="rgb" valType="str" updates="constant"/>\u000a        <Param name="name" val="text_2" valType="code" updates="None"/>\u000a        <Param name="wrapWidth" val="" valType="code" updates="constant"/>\u000a        <Param name="color" val="white" valType="str" updates="constant"/>\u000a        <Param name="text" val="" valType="str" updates="constant"/>\u000a        <Param name="stopVal" val="3" valType="code" updates="constant"/>\u000a        <Param name="durationEstim" val="" valType="code" updates="None"/>\u000a        <Param name="pos" val="[0, 0]" valType="code" updates="constant"/>\u000a        <Param name="flip" val="" valType="str" updates="constant"/>\u000a        <Param name="startEstim" val="" valType="code" updates="None"/>\u000a        <Param name="units" val="from exp settings" valType="str" updates="None"/>\u000a        <Param name="startType" val="time (s)" valType="str" updates="None"/>\u000a        <Param name="ori" val="0" valType="code" updates="constant"/>\u000a        <Param name="stopType" val="duration (s)" valType="str" updates="None"/>\u000a        <Param name="startVal" val="0.0" valType="code" updates="None"/>\u000a        <Param name="font" val="Arial" valType="str" updates="constant"/>\u000a        <Param name="letterHeight" val="0.1" valType="code" updates="constant"/>\u000a      </TextComponent>\u000a    </Routine>\u000a    <Routine name="instructions">\u000a      <TextComponent name="Instructions">\u000a        <Param name="opacity" val="1" valType="code" updates="constant"/>\u000a        <Param name="colorSpace" val="rgb" valType="str" updates="constant"/>\u000a        <Param name="name" val="Instructions" valType="code" updates="None"/>\u000a        <Param name="wrapWidth" val="35" valType="code" updates="constant"/>\u000a        <Param name="color" val="white" valType="str" updates="constant"/>\u000a        <Param name="text" val="$text" valType="str" updates="set every repeat"/>\u000a        <Param name="stopVal" val="" valType="code" updates="constant"/>\u000a        <Param name="durationEstim" val="" valType="code" updates="None"/>\u000a        <Param name="pos" val="[0, 5]" valType="code" updates="constant"/>\u000a        <Param name="flip" val="" valType="str" updates="constant"/>\u000a        <Param name="startEstim" val="" valType="code" updates="None"/>\u000a        <Param name="units" val="cm" valType="str" updates="None"/>\u000a        <Param name="startType" val="time (s)" valType="str" updates="None"/>\u000a        <Param name="ori" val="0" valType="code" updates="constant"/>\u000a        <Param name="stopType" val="duration (s)" valType="str" updates="None"/>\u000a        <Param name="startVal" val="0.0" valType="code" updates="None"/>\u000a        <Param name="font" val="Arial" valType="str" updates="constant"/>\u000a        <Param name="letterHeight" val="1" valType="code" updates="constant"/>\u000a      </TextComponent>\u000a      <KeyboardComponent name="Next_Instr">\u000a        <Param name="correctAns" val="" valType="str" updates="constant"/>\u000a        <Param name="storeCorrect" val="False" valType="bool" updates="constant"/>\u000a        <Param name="name" val="Next_Instr" valType="code" updates="None"/>\u000a        <Param name="stopVal" val="" valType="code" updates="constant"/>\u000a        <Param name="durationEstim" val="" valType="code" updates="None"/>\u000a        <Param name="forceEndRoutine" val="True" valType="bool" updates="constant"/>\u000a        <Param name="startEstim" val="" valType="code" updates="None"/>\u000a        <Param name="discard previous" val="True" valType="bool" updates="constant"/>\u000a        <Param name="startType" val="time (s)" valType="str" updates="None"/>\u000a        <Param name="allowedKeys" val="'space'" valType="code" updates="constant"/>\u000a        <Param name="stopType" val="duration (s)" valType="str" updates="None"/>\u000a        <Param name="startVal" val="0.0" valType="code" updates="None"/>\u000a        <Param name="store" val="nothing" valType="str" updates="constant"/>\u000a      </KeyboardComponent>\u000a      <TextComponent name="Space_Continue">\u000a        <Param name="opacity" val="1" valType="code" updates="constant"/>\u000a        <Param name="colorSpace" val="rgb" valType="str" updates="constant"/>\u000a        <Param name="name" val="Space_Continue" valType="code" updates="None"/>\u000a        <Param name="wrapWidth" val="35" valType="code" updates="constant"/>\u000a        <Param name="color" val="white" valType="str" updates="constant"/>\u000a        <Param name="text" val="Press SPACE to continue" valType="str" updates="constant"/>\u000a        <Param name="stopVal" val="" valType="code" updates="constant"/>\u000a        <Param name="durationEstim" val="" valType="code" updates="None"/>\u000a        <Param name="pos" val="[0, -7]" valType="code" updates="constant"/>\u000a        <Param name="flip" val="" valType="str" updates="constant"/>\u000a        <Param name="startEstim" val="" valType="code" updates="None"/>\u000a        <Param name="units" val="cm" valType="str" updates="None"/>\u000a        <Param name="startType" val="time (s)" valType="str" updates="None"/>\u000a        <Param name="ori" val="0" valType="code" updates="constant"/>\u000a        <Param name="stopType" val="duration (s)" valType="str" updates="None"/>\u000a        <Param name="startVal" val="0.0" valType="code" updates="None"/>\u000a        <Param name="font" val="Arial" valType="str" updates="constant"/>\u000a        <Param name="letterHeight" val="1" valType="code" updates="constant"/>\u000a      </TextComponent>\u000a    </Routine>\u000a  </Routines>\u000a  <Flow>\u000a    <LoopInitiator loopType="TrialHandler" name="instr_data">\u000a      <Param name="conditionsFile" val="instructions.csv" valType="str" updates="None"/>\u000a      <Param name="name" val="instr_data" valType="code" updates="None"/>\u000a      <Param name="random seed" val="" valType="code" updates="None"/>\u000a      <Param name="loopType" val="sequential" valType="str" updates="None"/>\u000a      <Param name="nReps" val="1" valType="code" updates="None"/>\u000a      <Param name="endPoints" val="[0, 1]" valType="num" updates="None"/>\u000a      <Param name="conditions" val="[{'text': u'Instructions 1!'}, {'text': u'Instructions 2!'}]" valType="str" updates="None"/>\u000a    </LoopInitiator>\u000a    <Routine name="instructions"/>\u000a    <LoopTerminator name="instr_data"/>\u000a    <Routine name="pause"/>\u000a    <LoopInitiator loopType="TrialHandler" name="arguments_data">\u000a      <Param name="conditionsFile" val="arguments.csv" valType="str" updates="None"/>\u000a      <Param name="name" val="arguments_data" valType="code" updates="None"/>\u000a      <Param name="random seed" val="" valType="code" updates="None"/>\u000a      <Param name="loopType" val="random" valType="str" updates="None"/>\u000a      <Param name="nReps" val="1" valType="code" updates="None"/>\u000a      <Param name="endPoints" val="[0, 1]" valType="num" updates="None"/>\u000a      <Param name="conditions" val="[{'argument': u'clear_01.csv'}, {'argument': u'messy_01.csv'}]" valType="str" updates="None"/>\u000a    </LoopInitiator>\u000a    <Routine name="code"/>\u000a    <LoopInitiator loopType="TrialHandler" name="word_data">\u000a      <Param name="conditionsFile" val="$argument" valType="str" updates="None"/>\u000a      <Param name="name" val="word_data" valType="code" updates="None"/>\u000a      <Param name="random seed" val="" valType="code" updates="None"/>\u000a      <Param name="loopType" val="sequential" valType="str" updates="None"/>\u000a      <Param name="nReps" val="1" valType="code" updates="None"/>\u000a      <Param name="endPoints" val="[0, 1]" valType="num" updates="None"/>\u000a      <Param name="conditions" val="None" valType="str" updates="None"/>\u000a    </LoopInitiator>\u000a    <Routine name="code2"/>\u000a    <Routine name="argument"/>\u000a    <LoopTerminator name="word_data"/>\u000a    <LoopInitiator loopType="TrialHandler" name="questions">\u000a      <Param name="conditionsFile" val="questions.csv" valType="str" updates="None"/>\u000a      <Param name="name" val="questions" valType="code" updates="None"/>\u000a      <Param name="random seed" val="" valType="code" updates="None"/>\u000a      <Param name="loopType" val="random" valType="str" updates="None"/>\u000a      <Param name="nReps" val="1" valType="code" updates="None"/>\u000a      <Param name="endPoints" val="[0, 1]" valType="num" updates="None"/>\u000a      <Param name="conditions" val="None" valType="str" updates="None"/>\u000a    </LoopInitiator>\u000a    <Routine name="question"/>\u000a    <LoopTerminator name="questions"/>\u000a    <Routine name="next_arg"/>\u000a    <LoopTerminator name="arguments_data"/>\u000a    <Routine name="end"/>\u000a  </Flow>\u000a</PsychoPy2experiment>\u000a
p409
sg311
(lp410
sg313
I59341424
sg11
S'questions'
p411
sg6
g7
sg315
I1
sg17
I01
sg18
g19
sg316
g1
(g317
g318
(dp412
g320
g321
(g322
g323
g324
S'b'
tRp413
(I1
(I5
I1
tg326
I00
S'\x00\x00\x80?\x00\x00\x80?\x00\x00\x80?\x00\x00\x80?\x00\x00\x80?'
S'\x00\x00\x00\x00\x00'
Ntbsg15
g341
(g323
(I0
tS'b'
tRp414
(I1
(I5
I1
tg24
(S'O4'
I0
I1
tRp415
(I3
S'|'
NNNI-1
I-1
I63
tbI00
(lp416
S'1'
aS'4'
aS'7'
aS'7'
aS'9'
atbsg16
g321
(g322
g323
g324
S'b'
tRp417
(I1
(I5
I1
tg326
I00
S'K\xfdy@\xeaF\x0b?%\xee\xb9>\x0f\x98\xdd?9\xeb\xd5?'
S'\x00\x00\x00\x00\x00'
Ntbsg327
g321
(g322
g323
g324
S'b'
tRp418
(I1
(I5
I1
tg326
I00
S'\x00\x00\x00\x00\x00\x00@@\x00\x00\x80@\x00\x00\x00@\x00\x00\x80?'
S'\x00\x00\x00\x00\x00'
NtbstRp419
(dp420
g331
(dp421
g320
I01
sg15
I00
sg16
I01
sg327
I01
ssg333
g407
sg334
(lp422
g320
ag327
ag15
ag16
asg336
(lp423
I5
aI1
asbsg338
g374
sg340
g341
(g323
(I0
tS'b'
tRp424
(I1
(I5
I1
tg52
I01
S'\x00\x00\x00\x00\x04\x00\x00\x00\x03\x00\x00\x00\x01\x00\x00\x00\x02\x00\x00\x00'
tbsg343
I01
sg344
I1
sg345
I-1
sg346
(lp425
g1
(g348
g318
(dp426
g43
g129
stRp427
ag1
(g348
g318
(dp428
g43
g162
stRp429
ag1
(g348
g318
(dp430
g43
g173
stRp431
ag1
(g348
g318
(dp432
g43
g151
stRp433
ag1
(g348
g318
(dp434
g43
g140
stRp435
asg355
Nsg356
g176
sg357
I5
sg358
I0
sg359
I5
sg360
I01
sbag1
(g306
g3
NtRp436
(dp437
g309
V<PsychoPy2experiment version="1.80.03" encoding="utf-8">\u000a  <Settings>\u000a    <Param name="Show mouse" val="False" valType="bool" updates="None"/>\u000a    <Param name="Data filename" val="'data/%s_%s_%s' %(expInfo['participant'], expName, expInfo['date'])" valType="code" updates="None"/>\u000a    <Param name="Monitor" val="testMonitor" valType="str" updates="None"/>\u000a    <Param name="Enable Escape" val="True" valType="bool" updates="None"/>\u000a    <Param name="color" val="$[0,0,0]" valType="str" updates="None"/>\u000a    <Param name="Window size (pixels)" val="[1024, 768]" valType="code" updates="None"/>\u000a    <Param name="Full-screen window" val="True" valType="bool" updates="None"/>\u000a    <Param name="colorSpace" val="rgb" valType="str" updates="None"/>\u000a    <Param name="Experiment info" val="{'participant':'', 'session':'001'}" valType="code" updates="None"/>\u000a    <Param name="Save csv file" val="False" valType="bool" updates="None"/>\u000a    <Param name="Show info dlg" val="True" valType="bool" updates="None"/>\u000a    <Param name="Save wide csv file" val="True" valType="bool" updates="None"/>\u000a    <Param name="Save psydat file" val="True" valType="bool" updates="None"/>\u000a    <Param name="expName" val="Arguments" valType="str" updates="None"/>\u000a    <Param name="logging level" val="exp" valType="code" updates="None"/>\u000a    <Param name="blendMode" val="avg" valType="str" updates="None"/>\u000a    <Param name="Save excel file" val="False" valType="bool" updates="None"/>\u000a    <Param name="Units" val="use prefs" valType="str" updates="None"/>\u000a    <Param name="Save log file" val="True" valType="bool" updates="None"/>\u000a    <Param name="Screen" val="1" valType="num" updates="None"/>\u000a  </Settings>\u000a  <Routines>\u000a    <Routine name="code2">\u000a      <CodeComponent name="read_CSV2">\u000a        <Param name="Begin Experiment" val="" valType="extendedCode" updates="constant"/>\u000a        <Param name="name" val="read_CSV2" valType="code" updates="None"/>\u000a        <Param name="Each Frame" val="" valType="extendedCode" updates="constant"/>\u000a        <Param name="Begin Routine" val="words = words.replace('&quot;','')" valType="extendedCode" updates="constant"/>\u000a        <Param name="End Routine" val="" valType="extendedCode" updates="constant"/>\u000a        <Param name="End Experiment" val="" valType="extendedCode" updates="constant"/>\u000a      </CodeComponent>\u000a    </Routine>\u000a    <Routine name="code">\u000a      <CodeComponent name="read_CSV">\u000a        <Param name="Begin Experiment" val="" valType="extendedCode" updates="constant"/>\u000a        <Param name="name" val="read_CSV" valType="code" updates="None"/>\u000a        <Param name="Each Frame" val="" valType="extendedCode" updates="constant"/>\u000a        <Param name="Begin Routine" val="argument = argument.replace('&quot;', '')" valType="extendedCode" updates="constant"/>\u000a        <Param name="End Routine" val="" valType="extendedCode" updates="constant"/>\u000a        <Param name="End Experiment" val="" valType="extendedCode" updates="constant"/>\u000a      </CodeComponent>\u000a    </Routine>\u000a    <Routine name="end">\u000a      <TextComponent name="End">\u000a        <Param name="opacity" val="1" valType="code" updates="constant"/>\u000a        <Param name="colorSpace" val="rgb" valType="str" updates="constant"/>\u000a        <Param name="name" val="End" valType="code" updates="None"/>\u000a        <Param name="wrapWidth" val="35" valType="code" updates="constant"/>\u000a        <Param name="color" val="white" valType="str" updates="constant"/>\u000a        <Param name="text" val="Thanks for participating!&#10;&#10;Please turn around and tell the experimenter that you have finished!" valType="str" updates="constant"/>\u000a        <Param name="stopVal" val="5" valType="code" updates="constant"/>\u000a        <Param name="durationEstim" val="" valType="code" updates="None"/>\u000a        <Param name="pos" val="[0, 0]" valType="code" updates="constant"/>\u000a        <Param name="flip" val="" valType="str" updates="constant"/>\u000a        <Param name="startEstim" val="" valType="code" updates="None"/>\u000a        <Param name="units" val="cm" valType="str" updates="None"/>\u000a        <Param name="startType" val="time (s)" valType="str" updates="None"/>\u000a        <Param name="ori" val="0" valType="code" updates="constant"/>\u000a        <Param name="stopType" val="duration (s)" valType="str" updates="None"/>\u000a        <Param name="startVal" val="0.0" valType="code" updates="None"/>\u000a        <Param name="font" val="Arial" valType="str" updates="constant"/>\u000a        <Param name="letterHeight" val="1" valType="code" updates="constant"/>\u000a      </TextComponent>\u000a    </Routine>\u000a    <Routine name="next_arg">\u000a      <TextComponent name="text_3">\u000a        <Param name="opacity" val="1" valType="code" updates="constant"/>\u000a        <Param name="colorSpace" val="rgb" valType="str" updates="constant"/>\u000a        <Param name="name" val="text_3" valType="code" updates="None"/>\u000a        <Param name="wrapWidth" val="" valType="code" updates="constant"/>\u000a        <Param name="color" val="white" valType="str" updates="constant"/>\u000a        <Param name="text" val="Press SPACE when you are ready to read the next argument." valType="str" updates="constant"/>\u000a        <Param name="stopVal" val="" valType="code" updates="constant"/>\u000a        <Param name="durationEstim" val="" valType="code" updates="None"/>\u000a        <Param name="pos" val="[0, 0]" valType="code" updates="constant"/>\u000a        <Param name="flip" val="" valType="str" updates="constant"/>\u000a        <Param name="startEstim" val="" valType="code" updates="None"/>\u000a        <Param name="units" val="from exp settings" valType="str" updates="None"/>\u000a        <Param name="startType" val="time (s)" valType="str" updates="None"/>\u000a        <Param name="ori" val="0" valType="code" updates="constant"/>\u000a        <Param name="stopType" val="duration (s)" valType="str" updates="None"/>\u000a        <Param name="startVal" val="0.5" valType="code" updates="None"/>\u000a        <Param name="font" val="Arial" valType="str" updates="constant"/>\u000a        <Param name="letterHeight" val="0.1" valType="code" updates="constant"/>\u000a      </TextComponent>\u000a      <KeyboardComponent name="Next_Argument">\u000a        <Param name="correctAns" val="" valType="str" updates="constant"/>\u000a        <Param name="storeCorrect" val="False" valType="bool" updates="constant"/>\u000a        <Param name="name" val="Next_Argument" valType="code" updates="None"/>\u000a        <Param name="stopVal" val="" valType="code" updates="constant"/>\u000a        <Param name="durationEstim" val="" valType="code" updates="None"/>\u000a        <Param name="forceEndRoutine" val="True" valType="bool" updates="constant"/>\u000a        <Param name="startEstim" val="" valType="code" updates="None"/>\u000a        <Param name="discard previous" val="True" valType="bool" updates="constant"/>\u000a        <Param name="startType" val="time (s)" valType="str" updates="None"/>\u000a        <Param name="allowedKeys" val="'space'" valType="code" updates="constant"/>\u000a        <Param name="stopType" val="duration (s)" valType="str" updates="None"/>\u000a        <Param name="startVal" val="0.5" valType="code" updates="None"/>\u000a        <Param name="store" val="nothing" valType="str" updates="constant"/>\u000a      </KeyboardComponent>\u000a    </Routine>\u000a    <Routine name="question">\u000a      <TextComponent name="question_text">\u000a        <Param name="opacity" val="1" valType="code" updates="constant"/>\u000a        <Param name="colorSpace" val="rgb" valType="str" updates="constant"/>\u000a        <Param name="name" val="question_text" valType="code" updates="None"/>\u000a        <Param name="wrapWidth" val="35" valType="code" updates="constant"/>\u000a        <Param name="color" val="white" valType="str" updates="constant"/>\u000a        <Param name="text" val="$question" valType="str" updates="set every repeat"/>\u000a        <Param name="stopVal" val="" valType="code" updates="constant"/>\u000a        <Param name="durationEstim" val="" valType="code" updates="None"/>\u000a        <Param name="pos" val="[0, 0]" valType="code" updates="constant"/>\u000a        <Param name="flip" val="" valType="str" updates="constant"/>\u000a        <Param name="startEstim" val="" valType="code" updates="None"/>\u000a        <Param name="units" val="cm" valType="str" updates="None"/>\u000a        <Param name="startType" val="time (s)" valType="str" updates="None"/>\u000a        <Param name="ori" val="0" valType="code" updates="constant"/>\u000a        <Param name="stopType" val="duration (s)" valType="str" updates="None"/>\u000a        <Param name="startVal" val="0.5" valType="code" updates="None"/>\u000a        <Param name="font" val="Arial" valType="str" updates="constant"/>\u000a        <Param name="letterHeight" val="1" valType="code" updates="constant"/>\u000a      </TextComponent>\u000a      <KeyboardComponent name="rating">\u000a        <Param name="correctAns" val="" valType="str" updates="constant"/>\u000a        <Param name="storeCorrect" val="False" valType="bool" updates="constant"/>\u000a        <Param name="name" val="rating" valType="code" updates="None"/>\u000a        <Param name="stopVal" val="" valType="code" updates="constant"/>\u000a        <Param name="durationEstim" val="" valType="code" updates="None"/>\u000a        <Param name="forceEndRoutine" val="True" valType="bool" updates="constant"/>\u000a        <Param name="startEstim" val="" valType="code" updates="None"/>\u000a        <Param name="discard previous" val="True" valType="bool" updates="constant"/>\u000a        <Param name="startType" val="time (s)" valType="str" updates="None"/>\u000a        <Param name="allowedKeys" val="'1','2','3','4','5','6','7','8','9'" valType="code" updates="constant"/>\u000a        <Param name="stopType" val="duration (s)" valType="str" updates="None"/>\u000a        <Param name="startVal" val="0.5" valType="code" updates="None"/>\u000a        <Param name="store" val="last key" valType="str" updates="constant"/>\u000a      </KeyboardComponent>\u000a    </Routine>\u000a    <Routine name="argument">\u000a      <ImageComponent name="text_image">\u000a        <Param name="opacity" val="1" valType="code" updates="constant"/>\u000a        <Param name="flipVert" val="False" valType="bool" updates="constant"/>\u000a        <Param name="colorSpace" val="rgb" valType="str" updates="constant"/>\u000a        <Param name="name" val="text_image" valType="code" updates="constant"/>\u000a        <Param name="color" val="$[1,1,1]" valType="str" updates="constant"/>\u000a        <Param name="stopVal" val="1.0" valType="code" updates="constant"/>\u000a        <Param name="durationEstim" val="" valType="code" updates="None"/>\u000a        <Param name="mask" val="None" valType="str" updates="constant"/>\u000a        <Param name="pos" val="[0, 0]" valType="code" updates="constant"/>\u000a        <Param name="interpolate" val="" valType="str" updates="constant"/>\u000a        <Param name="startEstim" val="" valType="code" updates="None"/>\u000a        <Param name="units" val="from exp settings" valType="str" updates="None"/>\u000a        <Param name="texture resolution" val="128" valType="code" updates="constant"/>\u000a        <Param name="startType" val="time (s)" valType="str" updates="None"/>\u000a        <Param name="ori" val="0" valType="code" updates="constant"/>\u000a        <Param name="stopType" val="duration (s)" valType="str" updates="None"/>\u000a        <Param name="startVal" val="0.0" valType="code" updates="None"/>\u000a        <Param name="flipHoriz" val="False" valType="bool" updates="constant"/>\u000a        <Param name="image" val="$words" valType="str" updates="set every repeat"/>\u000a        <Param name="size" val="[1, 1]" valType="code" updates="constant"/>\u000a      </ImageComponent>\u000a    </Routine>\u000a    <Routine name="next_ques"/>\u000a    <Routine name="pause">\u000a      <TextComponent name="text_2">\u000a        <Param name="opacity" val="1" valType="code" updates="constant"/>\u000a        <Param name="colorSpace" val="rgb" valType="str" updates="constant"/>\u000a        <Param name="name" val="text_2" valType="code" updates="None"/>\u000a        <Param name="wrapWidth" val="" valType="code" updates="constant"/>\u000a        <Param name="color" val="white" valType="str" updates="constant"/>\u000a        <Param name="text" val="" valType="str" updates="constant"/>\u000a        <Param name="stopVal" val="3" valType="code" updates="constant"/>\u000a        <Param name="durationEstim" val="" valType="code" updates="None"/>\u000a        <Param name="pos" val="[0, 0]" valType="code" updates="constant"/>\u000a        <Param name="flip" val="" valType="str" updates="constant"/>\u000a        <Param name="startEstim" val="" valType="code" updates="None"/>\u000a        <Param name="units" val="from exp settings" valType="str" updates="None"/>\u000a        <Param name="startType" val="time (s)" valType="str" updates="None"/>\u000a        <Param name="ori" val="0" valType="code" updates="constant"/>\u000a        <Param name="stopType" val="duration (s)" valType="str" updates="None"/>\u000a        <Param name="startVal" val="0.0" valType="code" updates="None"/>\u000a        <Param name="font" val="Arial" valType="str" updates="constant"/>\u000a        <Param name="letterHeight" val="0.1" valType="code" updates="constant"/>\u000a      </TextComponent>\u000a    </Routine>\u000a    <Routine name="instructions">\u000a      <TextComponent name="Instructions">\u000a        <Param name="opacity" val="1" valType="code" updates="constant"/>\u000a        <Param name="colorSpace" val="rgb" valType="str" updates="constant"/>\u000a        <Param name="name" val="Instructions" valType="code" updates="None"/>\u000a        <Param name="wrapWidth" val="35" valType="code" updates="constant"/>\u000a        <Param name="color" val="white" valType="str" updates="constant"/>\u000a        <Param name="text" val="$text" valType="str" updates="set every repeat"/>\u000a        <Param name="stopVal" val="" valType="code" updates="constant"/>\u000a        <Param name="durationEstim" val="" valType="code" updates="None"/>\u000a        <Param name="pos" val="[0, 5]" valType="code" updates="constant"/>\u000a        <Param name="flip" val="" valType="str" updates="constant"/>\u000a        <Param name="startEstim" val="" valType="code" updates="None"/>\u000a        <Param name="units" val="cm" valType="str" updates="None"/>\u000a        <Param name="startType" val="time (s)" valType="str" updates="None"/>\u000a        <Param name="ori" val="0" valType="code" updates="constant"/>\u000a        <Param name="stopType" val="duration (s)" valType="str" updates="None"/>\u000a        <Param name="startVal" val="0.0" valType="code" updates="None"/>\u000a        <Param name="font" val="Arial" valType="str" updates="constant"/>\u000a        <Param name="letterHeight" val="1" valType="code" updates="constant"/>\u000a      </TextComponent>\u000a      <KeyboardComponent name="Next_Instr">\u000a        <Param name="correctAns" val="" valType="str" updates="constant"/>\u000a        <Param name="storeCorrect" val="False" valType="bool" updates="constant"/>\u000a        <Param name="name" val="Next_Instr" valType="code" updates="None"/>\u000a        <Param name="stopVal" val="" valType="code" updates="constant"/>\u000a        <Param name="durationEstim" val="" valType="code" updates="None"/>\u000a        <Param name="forceEndRoutine" val="True" valType="bool" updates="constant"/>\u000a        <Param name="startEstim" val="" valType="code" updates="None"/>\u000a        <Param name="discard previous" val="True" valType="bool" updates="constant"/>\u000a        <Param name="startType" val="time (s)" valType="str" updates="None"/>\u000a        <Param name="allowedKeys" val="'space'" valType="code" updates="constant"/>\u000a        <Param name="stopType" val="duration (s)" valType="str" updates="None"/>\u000a        <Param name="startVal" val="0.0" valType="code" updates="None"/>\u000a        <Param name="store" val="nothing" valType="str" updates="constant"/>\u000a      </KeyboardComponent>\u000a      <TextComponent name="Space_Continue">\u000a        <Param name="opacity" val="1" valType="code" updates="constant"/>\u000a        <Param name="colorSpace" val="rgb" valType="str" updates="constant"/>\u000a        <Param name="name" val="Space_Continue" valType="code" updates="None"/>\u000a        <Param name="wrapWidth" val="35" valType="code" updates="constant"/>\u000a        <Param name="color" val="white" valType="str" updates="constant"/>\u000a        <Param name="text" val="Press SPACE to continue" valType="str" updates="constant"/>\u000a        <Param name="stopVal" val="" valType="code" updates="constant"/>\u000a        <Param name="durationEstim" val="" valType="code" updates="None"/>\u000a        <Param name="pos" val="[0, -7]" valType="code" updates="constant"/>\u000a        <Param name="flip" val="" valType="str" updates="constant"/>\u000a        <Param name="startEstim" val="" valType="code" updates="None"/>\u000a        <Param name="units" val="cm" valType="str" updates="None"/>\u000a        <Param name="startType" val="time (s)" valType="str" updates="None"/>\u000a        <Param name="ori" val="0" valType="code" updates="constant"/>\u000a        <Param name="stopType" val="duration (s)" valType="str" updates="None"/>\u000a        <Param name="startVal" val="0.0" valType="code" updates="None"/>\u000a        <Param name="font" val="Arial" valType="str" updates="constant"/>\u000a        <Param name="letterHeight" val="1" valType="code" updates="constant"/>\u000a      </TextComponent>\u000a    </Routine>\u000a  </Routines>\u000a  <Flow>\u000a    <LoopInitiator loopType="TrialHandler" name="instr_data">\u000a      <Param name="conditionsFile" val="instructions.csv" valType="str" updates="None"/>\u000a      <Param name="name" val="instr_data" valType="code" updates="None"/>\u000a      <Param name="random seed" val="" valType="code" updates="None"/>\u000a      <Param name="loopType" val="sequential" valType="str" updates="None"/>\u000a      <Param name="nReps" val="1" valType="code" updates="None"/>\u000a      <Param name="endPoints" val="[0, 1]" valType="num" updates="None"/>\u000a      <Param name="conditions" val="[{'text': u'Instructions 1!'}, {'text': u'Instructions 2!'}]" valType="str" updates="None"/>\u000a    </LoopInitiator>\u000a    <Routine name="instructions"/>\u000a    <LoopTerminator name="instr_data"/>\u000a    <Routine name="pause"/>\u000a    <LoopInitiator loopType="TrialHandler" name="arguments_data">\u000a      <Param name="conditionsFile" val="arguments.csv" valType="str" updates="None"/>\u000a      <Param name="name" val="arguments_data" valType="code" updates="None"/>\u000a      <Param name="random seed" val="" valType="code" updates="None"/>\u000a      <Param name="loopType" val="random" valType="str" updates="None"/>\u000a      <Param name="nReps" val="1" valType="code" updates="None"/>\u000a      <Param name="endPoints" val="[0, 1]" valType="num" updates="None"/>\u000a      <Param name="conditions" val="[{'argument': u'clear_01.csv'}, {'argument': u'messy_01.csv'}]" valType="str" updates="None"/>\u000a    </LoopInitiator>\u000a    <Routine name="code"/>\u000a    <LoopInitiator loopType="TrialHandler" name="word_data">\u000a      <Param name="conditionsFile" val="$argument" valType="str" updates="None"/>\u000a      <Param name="name" val="word_data" valType="code" updates="None"/>\u000a      <Param name="random seed" val="" valType="code" updates="None"/>\u000a      <Param name="loopType" val="sequential" valType="str" updates="None"/>\u000a      <Param name="nReps" val="1" valType="code" updates="None"/>\u000a      <Param name="endPoints" val="[0, 1]" valType="num" updates="None"/>\u000a      <Param name="conditions" val="None" valType="str" updates="None"/>\u000a    </LoopInitiator>\u000a    <Routine name="code2"/>\u000a    <Routine name="argument"/>\u000a    <LoopTerminator name="word_data"/>\u000a    <LoopInitiator loopType="TrialHandler" name="questions">\u000a      <Param name="conditionsFile" val="questions.csv" valType="str" updates="None"/>\u000a      <Param name="name" val="questions" valType="code" updates="None"/>\u000a      <Param name="random seed" val="" valType="code" updates="None"/>\u000a      <Param name="loopType" val="random" valType="str" updates="None"/>\u000a      <Param name="nReps" val="1" valType="code" updates="None"/>\u000a      <Param name="endPoints" val="[0, 1]" valType="num" updates="None"/>\u000a      <Param name="conditions" val="None" valType="str" updates="None"/>\u000a    </LoopInitiator>\u000a    <Routine name="question"/>\u000a    <LoopTerminator name="questions"/>\u000a    <Routine name="next_arg"/>\u000a    <LoopTerminator name="arguments_data"/>\u000a    <Routine name="end"/>\u000a  </Flow>\u000a</PsychoPy2experiment>\u000a
p438
sg311
(lp439
sg313
I59341424
sg11
g385
sg6
g7
sg315
I1
sg17
I01
sg18
g19
sg316
g1
(g317
g318
(dp440
g320
g321
(g322
g323
g324
S'b'
tRp441
(I1
(I5
I1
tg326
I00
S'\x00\x00\x80?\x00\x00\x80?\x00\x00\x80?\x00\x00\x80?\x00\x00\x80?'
S'\x00\x00\x00\x00\x00'
Ntbsg327
g321
(g322
g323
g324
S'b'
tRp442
(I1
(I5
I1
tg326
I00
S'\x00\x00\x00\x00\x00\x00\x80?\x00\x00\x00@\x00\x00@@\x00\x00\x80@'
S'\x00\x00\x00\x00\x00'
NtbstRp443
(dp444
g331
(dp445
g320
I01
sg327
I01
ssg333
g436
sg334
(lp446
g320
ag327
asg336
(lp447
I5
aI1
asbsg338
g394
sg340
g341
(g323
(I0
tS'b'
tRp448
(I1
(I5
I1
tg52
I00
S'\x00\x00\x00\x00\x01\x00\x00\x00\x02\x00\x00\x00\x03\x00\x00\x00\x04\x00\x00\x00'
tbsg343
I01
sg344
I1
sg345
I-1
sg346
(lp449
g1
(g348
g318
(dp450
g195
g196
stRp451
ag1
(g348
g318
(dp452
g195
g207
stRp453
ag1
(g348
g318
(dp454
g195
g218
stRp455
ag1
(g348
g318
(dp456
g195
g229
stRp457
ag1
(g348
g318
(dp458
g195
g240
stRp459
asg355
Nsg356
g238
sg357
I5
sg358
I0
sg359
I5
sg360
I01
sbag1
(g306
g3
NtRp460
(dp461
g309
V<PsychoPy2experiment version="1.80.03" encoding="utf-8">\u000a  <Settings>\u000a    <Param name="Show mouse" val="False" valType="bool" updates="None"/>\u000a    <Param name="Data filename" val="'data/%s_%s_%s' %(expInfo['participant'], expName, expInfo['date'])" valType="code" updates="None"/>\u000a    <Param name="Monitor" val="testMonitor" valType="str" updates="None"/>\u000a    <Param name="Enable Escape" val="True" valType="bool" updates="None"/>\u000a    <Param name="color" val="$[0,0,0]" valType="str" updates="None"/>\u000a    <Param name="Window size (pixels)" val="[1024, 768]" valType="code" updates="None"/>\u000a    <Param name="Full-screen window" val="True" valType="bool" updates="None"/>\u000a    <Param name="colorSpace" val="rgb" valType="str" updates="None"/>\u000a    <Param name="Experiment info" val="{'participant':'', 'session':'001'}" valType="code" updates="None"/>\u000a    <Param name="Save csv file" val="False" valType="bool" updates="None"/>\u000a    <Param name="Show info dlg" val="True" valType="bool" updates="None"/>\u000a    <Param name="Save wide csv file" val="True" valType="bool" updates="None"/>\u000a    <Param name="Save psydat file" val="True" valType="bool" updates="None"/>\u000a    <Param name="expName" val="Arguments" valType="str" updates="None"/>\u000a    <Param name="logging level" val="exp" valType="code" updates="None"/>\u000a    <Param name="blendMode" val="avg" valType="str" updates="None"/>\u000a    <Param name="Save excel file" val="False" valType="bool" updates="None"/>\u000a    <Param name="Units" val="use prefs" valType="str" updates="None"/>\u000a    <Param name="Save log file" val="True" valType="bool" updates="None"/>\u000a    <Param name="Screen" val="1" valType="num" updates="None"/>\u000a  </Settings>\u000a  <Routines>\u000a    <Routine name="code2">\u000a      <CodeComponent name="read_CSV2">\u000a        <Param name="Begin Experiment" val="" valType="extendedCode" updates="constant"/>\u000a        <Param name="name" val="read_CSV2" valType="code" updates="None"/>\u000a        <Param name="Each Frame" val="" valType="extendedCode" updates="constant"/>\u000a        <Param name="Begin Routine" val="words = words.replace('&quot;','')" valType="extendedCode" updates="constant"/>\u000a        <Param name="End Routine" val="" valType="extendedCode" updates="constant"/>\u000a        <Param name="End Experiment" val="" valType="extendedCode" updates="constant"/>\u000a      </CodeComponent>\u000a    </Routine>\u000a    <Routine name="code">\u000a      <CodeComponent name="read_CSV">\u000a        <Param name="Begin Experiment" val="" valType="extendedCode" updates="constant"/>\u000a        <Param name="name" val="read_CSV" valType="code" updates="None"/>\u000a        <Param name="Each Frame" val="" valType="extendedCode" updates="constant"/>\u000a        <Param name="Begin Routine" val="argument = argument.replace('&quot;', '')" valType="extendedCode" updates="constant"/>\u000a        <Param name="End Routine" val="" valType="extendedCode" updates="constant"/>\u000a        <Param name="End Experiment" val="" valType="extendedCode" updates="constant"/>\u000a      </CodeComponent>\u000a    </Routine>\u000a    <Routine name="end">\u000a      <TextComponent name="End">\u000a        <Param name="opacity" val="1" valType="code" updates="constant"/>\u000a        <Param name="colorSpace" val="rgb" valType="str" updates="constant"/>\u000a        <Param name="name" val="End" valType="code" updates="None"/>\u000a        <Param name="wrapWidth" val="35" valType="code" updates="constant"/>\u000a        <Param name="color" val="white" valType="str" updates="constant"/>\u000a        <Param name="text" val="Thanks for participating!&#10;&#10;Please turn around and tell the experimenter that you have finished!" valType="str" updates="constant"/>\u000a        <Param name="stopVal" val="5" valType="code" updates="constant"/>\u000a        <Param name="durationEstim" val="" valType="code" updates="None"/>\u000a        <Param name="pos" val="[0, 0]" valType="code" updates="constant"/>\u000a        <Param name="flip" val="" valType="str" updates="constant"/>\u000a        <Param name="startEstim" val="" valType="code" updates="None"/>\u000a        <Param name="units" val="cm" valType="str" updates="None"/>\u000a        <Param name="startType" val="time (s)" valType="str" updates="None"/>\u000a        <Param name="ori" val="0" valType="code" updates="constant"/>\u000a        <Param name="stopType" val="duration (s)" valType="str" updates="None"/>\u000a        <Param name="startVal" val="0.0" valType="code" updates="None"/>\u000a        <Param name="font" val="Arial" valType="str" updates="constant"/>\u000a        <Param name="letterHeight" val="1" valType="code" updates="constant"/>\u000a      </TextComponent>\u000a    </Routine>\u000a    <Routine name="next_arg">\u000a      <TextComponent name="text_3">\u000a        <Param name="opacity" val="1" valType="code" updates="constant"/>\u000a        <Param name="colorSpace" val="rgb" valType="str" updates="constant"/>\u000a        <Param name="name" val="text_3" valType="code" updates="None"/>\u000a        <Param name="wrapWidth" val="" valType="code" updates="constant"/>\u000a        <Param name="color" val="white" valType="str" updates="constant"/>\u000a        <Param name="text" val="Press SPACE when you are ready to read the next argument." valType="str" updates="constant"/>\u000a        <Param name="stopVal" val="" valType="code" updates="constant"/>\u000a        <Param name="durationEstim" val="" valType="code" updates="None"/>\u000a        <Param name="pos" val="[0, 0]" valType="code" updates="constant"/>\u000a        <Param name="flip" val="" valType="str" updates="constant"/>\u000a        <Param name="startEstim" val="" valType="code" updates="None"/>\u000a        <Param name="units" val="from exp settings" valType="str" updates="None"/>\u000a        <Param name="startType" val="time (s)" valType="str" updates="None"/>\u000a        <Param name="ori" val="0" valType="code" updates="constant"/>\u000a        <Param name="stopType" val="duration (s)" valType="str" updates="None"/>\u000a        <Param name="startVal" val="0.5" valType="code" updates="None"/>\u000a        <Param name="font" val="Arial" valType="str" updates="constant"/>\u000a        <Param name="letterHeight" val="0.1" valType="code" updates="constant"/>\u000a      </TextComponent>\u000a      <KeyboardComponent name="Next_Argument">\u000a        <Param name="correctAns" val="" valType="str" updates="constant"/>\u000a        <Param name="storeCorrect" val="False" valType="bool" updates="constant"/>\u000a        <Param name="name" val="Next_Argument" valType="code" updates="None"/>\u000a        <Param name="stopVal" val="" valType="code" updates="constant"/>\u000a        <Param name="durationEstim" val="" valType="code" updates="None"/>\u000a        <Param name="forceEndRoutine" val="True" valType="bool" updates="constant"/>\u000a        <Param name="startEstim" val="" valType="code" updates="None"/>\u000a        <Param name="discard previous" val="True" valType="bool" updates="constant"/>\u000a        <Param name="startType" val="time (s)" valType="str" updates="None"/>\u000a        <Param name="allowedKeys" val="'space'" valType="code" updates="constant"/>\u000a        <Param name="stopType" val="duration (s)" valType="str" updates="None"/>\u000a        <Param name="startVal" val="0.5" valType="code" updates="None"/>\u000a        <Param name="store" val="nothing" valType="str" updates="constant"/>\u000a      </KeyboardComponent>\u000a    </Routine>\u000a    <Routine name="question">\u000a      <TextComponent name="question_text">\u000a        <Param name="opacity" val="1" valType="code" updates="constant"/>\u000a        <Param name="colorSpace" val="rgb" valType="str" updates="constant"/>\u000a        <Param name="name" val="question_text" valType="code" updates="None"/>\u000a        <Param name="wrapWidth" val="35" valType="code" updates="constant"/>\u000a        <Param name="color" val="white" valType="str" updates="constant"/>\u000a        <Param name="text" val="$question" valType="str" updates="set every repeat"/>\u000a        <Param name="stopVal" val="" valType="code" updates="constant"/>\u000a        <Param name="durationEstim" val="" valType="code" updates="None"/>\u000a        <Param name="pos" val="[0, 0]" valType="code" updates="constant"/>\u000a        <Param name="flip" val="" valType="str" updates="constant"/>\u000a        <Param name="startEstim" val="" valType="code" updates="None"/>\u000a        <Param name="units" val="cm" valType="str" updates="None"/>\u000a        <Param name="startType" val="time (s)" valType="str" updates="None"/>\u000a        <Param name="ori" val="0" valType="code" updates="constant"/>\u000a        <Param name="stopType" val="duration (s)" valType="str" updates="None"/>\u000a        <Param name="startVal" val="0.5" valType="code" updates="None"/>\u000a        <Param name="font" val="Arial" valType="str" updates="constant"/>\u000a        <Param name="letterHeight" val="1" valType="code" updates="constant"/>\u000a      </TextComponent>\u000a      <KeyboardComponent name="rating">\u000a        <Param name="correctAns" val="" valType="str" updates="constant"/>\u000a        <Param name="storeCorrect" val="False" valType="bool" updates="constant"/>\u000a        <Param name="name" val="rating" valType="code" updates="None"/>\u000a        <Param name="stopVal" val="" valType="code" updates="constant"/>\u000a        <Param name="durationEstim" val="" valType="code" updates="None"/>\u000a        <Param name="forceEndRoutine" val="True" valType="bool" updates="constant"/>\u000a        <Param name="startEstim" val="" valType="code" updates="None"/>\u000a        <Param name="discard previous" val="True" valType="bool" updates="constant"/>\u000a        <Param name="startType" val="time (s)" valType="str" updates="None"/>\u000a        <Param name="allowedKeys" val="'1','2','3','4','5','6','7','8','9'" valType="code" updates="constant"/>\u000a        <Param name="stopType" val="duration (s)" valType="str" updates="None"/>\u000a        <Param name="startVal" val="0.5" valType="code" updates="None"/>\u000a        <Param name="store" val="last key" valType="str" updates="constant"/>\u000a      </KeyboardComponent>\u000a    </Routine>\u000a    <Routine name="argument">\u000a      <ImageComponent name="text_image">\u000a        <Param name="opacity" val="1" valType="code" updates="constant"/>\u000a        <Param name="flipVert" val="False" valType="bool" updates="constant"/>\u000a        <Param name="colorSpace" val="rgb" valType="str" updates="constant"/>\u000a        <Param name="name" val="text_image" valType="code" updates="constant"/>\u000a        <Param name="color" val="$[1,1,1]" valType="str" updates="constant"/>\u000a        <Param name="stopVal" val="1.0" valType="code" updates="constant"/>\u000a        <Param name="durationEstim" val="" valType="code" updates="None"/>\u000a        <Param name="mask" val="None" valType="str" updates="constant"/>\u000a        <Param name="pos" val="[0, 0]" valType="code" updates="constant"/>\u000a        <Param name="interpolate" val="" valType="str" updates="constant"/>\u000a        <Param name="startEstim" val="" valType="code" updates="None"/>\u000a        <Param name="units" val="from exp settings" valType="str" updates="None"/>\u000a        <Param name="texture resolution" val="128" valType="code" updates="constant"/>\u000a        <Param name="startType" val="time (s)" valType="str" updates="None"/>\u000a        <Param name="ori" val="0" valType="code" updates="constant"/>\u000a        <Param name="stopType" val="duration (s)" valType="str" updates="None"/>\u000a        <Param name="startVal" val="0.0" valType="code" updates="None"/>\u000a        <Param name="flipHoriz" val="False" valType="bool" updates="constant"/>\u000a        <Param name="image" val="$words" valType="str" updates="set every repeat"/>\u000a        <Param name="size" val="[1, 1]" valType="code" updates="constant"/>\u000a      </ImageComponent>\u000a    </Routine>\u000a    <Routine name="next_ques"/>\u000a    <Routine name="pause">\u000a      <TextComponent name="text_2">\u000a        <Param name="opacity" val="1" valType="code" updates="constant"/>\u000a        <Param name="colorSpace" val="rgb" valType="str" updates="constant"/>\u000a        <Param name="name" val="text_2" valType="code" updates="None"/>\u000a        <Param name="wrapWidth" val="" valType="code" updates="constant"/>\u000a        <Param name="color" val="white" valType="str" updates="constant"/>\u000a        <Param name="text" val="" valType="str" updates="constant"/>\u000a        <Param name="stopVal" val="3" valType="code" updates="constant"/>\u000a        <Param name="durationEstim" val="" valType="code" updates="None"/>\u000a        <Param name="pos" val="[0, 0]" valType="code" updates="constant"/>\u000a        <Param name="flip" val="" valType="str" updates="constant"/>\u000a        <Param name="startEstim" val="" valType="code" updates="None"/>\u000a        <Param name="units" val="from exp settings" valType="str" updates="None"/>\u000a        <Param name="startType" val="time (s)" valType="str" updates="None"/>\u000a        <Param name="ori" val="0" valType="code" updates="constant"/>\u000a        <Param name="stopType" val="duration (s)" valType="str" updates="None"/>\u000a        <Param name="startVal" val="0.0" valType="code" updates="None"/>\u000a        <Param name="font" val="Arial" valType="str" updates="constant"/>\u000a        <Param name="letterHeight" val="0.1" valType="code" updates="constant"/>\u000a      </TextComponent>\u000a    </Routine>\u000a    <Routine name="instructions">\u000a      <TextComponent name="Instructions">\u000a        <Param name="opacity" val="1" valType="code" updates="constant"/>\u000a        <Param name="colorSpace" val="rgb" valType="str" updates="constant"/>\u000a        <Param name="name" val="Instructions" valType="code" updates="None"/>\u000a        <Param name="wrapWidth" val="35" valType="code" updates="constant"/>\u000a        <Param name="color" val="white" valType="str" updates="constant"/>\u000a        <Param name="text" val="$text" valType="str" updates="set every repeat"/>\u000a        <Param name="stopVal" val="" valType="code" updates="constant"/>\u000a        <Param name="durationEstim" val="" valType="code" updates="None"/>\u000a        <Param name="pos" val="[0, 5]" valType="code" updates="constant"/>\u000a        <Param name="flip" val="" valType="str" updates="constant"/>\u000a        <Param name="startEstim" val="" valType="code" updates="None"/>\u000a        <Param name="units" val="cm" valType="str" updates="None"/>\u000a        <Param name="startType" val="time (s)" valType="str" updates="None"/>\u000a        <Param name="ori" val="0" valType="code" updates="constant"/>\u000a        <Param name="stopType" val="duration (s)" valType="str" updates="None"/>\u000a        <Param name="startVal" val="0.0" valType="code" updates="None"/>\u000a        <Param name="font" val="Arial" valType="str" updates="constant"/>\u000a        <Param name="letterHeight" val="1" valType="code" updates="constant"/>\u000a      </TextComponent>\u000a      <KeyboardComponent name="Next_Instr">\u000a        <Param name="correctAns" val="" valType="str" updates="constant"/>\u000a        <Param name="storeCorrect" val="False" valType="bool" updates="constant"/>\u000a        <Param name="name" val="Next_Instr" valType="code" updates="None"/>\u000a        <Param name="stopVal" val="" valType="code" updates="constant"/>\u000a        <Param name="durationEstim" val="" valType="code" updates="None"/>\u000a        <Param name="forceEndRoutine" val="True" valType="bool" updates="constant"/>\u000a        <Param name="startEstim" val="" valType="code" updates="None"/>\u000a        <Param name="discard previous" val="True" valType="bool" updates="constant"/>\u000a        <Param name="startType" val="time (s)" valType="str" updates="None"/>\u000a        <Param name="allowedKeys" val="'space'" valType="code" updates="constant"/>\u000a        <Param name="stopType" val="duration (s)" valType="str" updates="None"/>\u000a        <Param name="startVal" val="0.0" valType="code" updates="None"/>\u000a        <Param name="store" val="nothing" valType="str" updates="constant"/>\u000a      </KeyboardComponent>\u000a      <TextComponent name="Space_Continue">\u000a        <Param name="opacity" val="1" valType="code" updates="constant"/>\u000a        <Param name="colorSpace" val="rgb" valType="str" updates="constant"/>\u000a        <Param name="name" val="Space_Continue" valType="code" updates="None"/>\u000a        <Param name="wrapWidth" val="35" valType="code" updates="constant"/>\u000a        <Param name="color" val="white" valType="str" updates="constant"/>\u000a        <Param name="text" val="Press SPACE to continue" valType="str" updates="constant"/>\u000a        <Param name="stopVal" val="" valType="code" updates="constant"/>\u000a        <Param name="durationEstim" val="" valType="code" updates="None"/>\u000a        <Param name="pos" val="[0, -7]" valType="code" updates="constant"/>\u000a        <Param name="flip" val="" valType="str" updates="constant"/>\u000a        <Param name="startEstim" val="" valType="code" updates="None"/>\u000a        <Param name="units" val="cm" valType="str" updates="None"/>\u000a        <Param name="startType" val="time (s)" valType="str" updates="None"/>\u000a        <Param name="ori" val="0" valType="code" updates="constant"/>\u000a        <Param name="stopType" val="duration (s)" valType="str" updates="None"/>\u000a        <Param name="startVal" val="0.0" valType="code" updates="None"/>\u000a        <Param name="font" val="Arial" valType="str" updates="constant"/>\u000a        <Param name="letterHeight" val="1" valType="code" updates="constant"/>\u000a      </TextComponent>\u000a    </Routine>\u000a  </Routines>\u000a  <Flow>\u000a    <LoopInitiator loopType="TrialHandler" name="instr_data">\u000a      <Param name="conditionsFile" val="instructions.csv" valType="str" updates="None"/>\u000a      <Param name="name" val="instr_data" valType="code" updates="None"/>\u000a      <Param name="random seed" val="" valType="code" updates="None"/>\u000a      <Param name="loopType" val="sequential" valType="str" updates="None"/>\u000a      <Param name="nReps" val="1" valType="code" updates="None"/>\u000a      <Param name="endPoints" val="[0, 1]" valType="num" updates="None"/>\u000a      <Param name="conditions" val="[{'text': u'Instructions 1!'}, {'text': u'Instructions 2!'}]" valType="str" updates="None"/>\u000a    </LoopInitiator>\u000a    <Routine name="instructions"/>\u000a    <LoopTerminator name="instr_data"/>\u000a    <Routine name="pause"/>\u000a    <LoopInitiator loopType="TrialHandler" name="arguments_data">\u000a      <Param name="conditionsFile" val="arguments.csv" valType="str" updates="None"/>\u000a      <Param name="name" val="arguments_data" valType="code" updates="None"/>\u000a      <Param name="random seed" val="" valType="code" updates="None"/>\u000a      <Param name="loopType" val="random" valType="str" updates="None"/>\u000a      <Param name="nReps" val="1" valType="code" updates="None"/>\u000a      <Param name="endPoints" val="[0, 1]" valType="num" updates="None"/>\u000a      <Param name="conditions" val="[{'argument': u'clear_01.csv'}, {'argument': u'messy_01.csv'}]" valType="str" updates="None"/>\u000a    </LoopInitiator>\u000a    <Routine name="code"/>\u000a    <LoopInitiator loopType="TrialHandler" name="word_data">\u000a      <Param name="conditionsFile" val="$argument" valType="str" updates="None"/>\u000a      <Param name="name" val="word_data" valType="code" updates="None"/>\u000a      <Param name="random seed" val="" valType="code" updates="None"/>\u000a      <Param name="loopType" val="sequential" valType="str" updates="None"/>\u000a      <Param name="nReps" val="1" valType="code" updates="None"/>\u000a      <Param name="endPoints" val="[0, 1]" valType="num" updates="None"/>\u000a      <Param name="conditions" val="None" valType="str" updates="None"/>\u000a    </LoopInitiator>\u000a    <Routine name="code2"/>\u000a    <Routine name="argument"/>\u000a    <LoopTerminator name="word_data"/>\u000a    <LoopInitiator loopType="TrialHandler" name="questions">\u000a      <Param name="conditionsFile" val="questions.csv" valType="str" updates="None"/>\u000a      <Param name="name" val="questions" valType="code" updates="None"/>\u000a      <Param name="random seed" val="" valType="code" updates="None"/>\u000a      <Param name="loopType" val="random" valType="str" updates="None"/>\u000a      <Param name="nReps" val="1" valType="code" updates="None"/>\u000a      <Param name="endPoints" val="[0, 1]" valType="num" updates="None"/>\u000a      <Param name="conditions" val="None" valType="str" updates="None"/>\u000a    </LoopInitiator>\u000a    <Routine name="question"/>\u000a    <LoopTerminator name="questions"/>\u000a    <Routine name="next_arg"/>\u000a    <LoopTerminator name="arguments_data"/>\u000a    <Routine name="end"/>\u000a  </Flow>\u000a</PsychoPy2experiment>\u000a
p462
sg311
(lp463
sg313
I59341424
sg11
g411
sg6
g7
sg315
I1
sg17
I01
sg18
g19
sg316
g1
(g317
g318
(dp464
g320
g321
(g322
g323
g324
S'b'
tRp465
(I1
(I5
I1
tg326
I00
S'\x00\x00\x80?\x00\x00\x80?\x00\x00\x80?\x00\x00\x80?\x00\x00\x80?'
S'\x00\x00\x00\x00\x00'
Ntbsg15
g341
(g323
(I0
tS'b'
tRp466
(I1
(I5
I1
tg415
I00
(lp467
S'6'
aS'9'
aS'6'
aS'7'
aS'5'
atbsg16
g321
(g322
g323
g324
S'b'
tRp468
(I1
(I5
I1
tg326
I00
S'd\x9a9>\x9f\x99$>#\xc7\x00@~\x11N>\xde\xf0b>'
S'\x00\x00\x00\x00\x00'
Ntbsg327
g321
(g322
g323
g324
S'b'
tRp469
(I1
(I5
I1
tg326
I00
S'\x00\x00\x00@\x00\x00\x80@\x00\x00\x00\x00\x00\x00@@\x00\x00\x80?'
S'\x00\x00\x00\x00\x00'
NtbstRp470
(dp471
g331
(dp472
g320
I01
sg15
I00
sg16
I01
sg327
I01
ssg333
g460
sg334
(lp473
g320
ag327
ag15
ag16
asg336
(lp474
I5
aI1
asbsg338
g374
sg340
g341
(g323
(I0
tS'b'
tRp475
(I1
(I5
I1
tg52
I01
S'\x02\x00\x00\x00\x04\x00\x00\x00\x00\x00\x00\x00\x03\x00\x00\x00\x01\x00\x00\x00'
tbsg343
I01
sg344
I1
sg345
I-1
sg346
(lp476
g1
(g348
g318
(dp477
g247
g270
stRp478
ag1
(g348
g318
(dp479
g247
g292
stRp480
ag1
(g348
g318
(dp481
g247
g248
stRp482
ag1
(g348
g318
(dp483
g247
g281
stRp484
ag1
(g348
g318
(dp485
g247
g259
stRp486
asg355
Nsg356
g295
sg357
I5
sg358
I0
sg359
I5
sg360
I01
sbasS'savePickle'
p487
I01
sb.