ccopy_reg
_reconstructor
p1
(cpsychopy.data
ExperimentHandler
p2
c__builtin__
object
p3
NtRp4
(dp5
S'originPath'
p6
S'C:\\Users\\Cameron\\Google Drive\\Experiments\\Clear-Arguments-Experiment\\Arguments.psyexp'
p7
sS'dataFileName'
p8
Vdata/999_Arguments_2014_Sep_15_0336
p9
sS'runtimeInfo'
p10
NsS'name'
p11
S'Arguments'
p12
sS'dataNames'
p13
(lp14
sS'autoLog'
p15
I01
sS'extraInfo'
p16
(dp17
S'date'
p18
V2014_Sep_15_0336
p19
sS'frameRate'
p20
cnumpy.core.multiarray
scalar
p21
(cnumpy
dtype
p22
(S'f8'
I0
I1
tRp23
(I3
S'<'
NNNI-1
I-1
I0
tbS'y$\x03C\xb9\xe0H@'
tRp24
sS'expName'
p25
g12
sS'session'
p26
V001
p27
sS'participant'
p28
V999
p29
ssS'loopsUnfinished'
p30
(lp31
g1
(cpsychopy.data
TrialHandler
p32
g3
NtRp33
(dp34
S'origin'
p35
V<PsychoPy2experiment version="1.80.03" encoding="utf-8">\u000a  <Settings>\u000a    <Param name="Show mouse" val="False" valType="bool" updates="None"/>\u000a    <Param name="Data filename" val="'data/%s_%s_%s' %(expInfo['participant'], expName, expInfo['date'])" valType="code" updates="None"/>\u000a    <Param name="Monitor" val="testMonitor" valType="str" updates="None"/>\u000a    <Param name="Enable Escape" val="True" valType="bool" updates="None"/>\u000a    <Param name="color" val="$[0,0,0]" valType="str" updates="None"/>\u000a    <Param name="Window size (pixels)" val="[1024, 768]" valType="code" updates="None"/>\u000a    <Param name="Full-screen window" val="True" valType="bool" updates="None"/>\u000a    <Param name="colorSpace" val="rgb" valType="str" updates="None"/>\u000a    <Param name="Experiment info" val="{'participant':'', 'session':'001'}" valType="code" updates="None"/>\u000a    <Param name="Save csv file" val="False" valType="bool" updates="None"/>\u000a    <Param name="Show info dlg" val="True" valType="bool" updates="None"/>\u000a    <Param name="Save wide csv file" val="True" valType="bool" updates="None"/>\u000a    <Param name="Save psydat file" val="True" valType="bool" updates="None"/>\u000a    <Param name="expName" val="Arguments" valType="str" updates="None"/>\u000a    <Param name="logging level" val="exp" valType="code" updates="None"/>\u000a    <Param name="blendMode" val="avg" valType="str" updates="None"/>\u000a    <Param name="Save excel file" val="False" valType="bool" updates="None"/>\u000a    <Param name="Units" val="use prefs" valType="str" updates="None"/>\u000a    <Param name="Save log file" val="True" valType="bool" updates="None"/>\u000a    <Param name="Screen" val="1" valType="num" updates="None"/>\u000a  </Settings>\u000a  <Routines>\u000a    <Routine name="code2">\u000a      <CodeComponent name="read_CSV2">\u000a        <Param name="Begin Experiment" val="" valType="extendedCode" updates="constant"/>\u000a        <Param name="name" val="read_CSV2" valType="code" updates="None"/>\u000a        <Param name="Each Frame" val="" valType="extendedCode" updates="constant"/>\u000a        <Param name="Begin Routine" val="words = words.replace('&quot;','')" valType="extendedCode" updates="constant"/>\u000a        <Param name="End Routine" val="" valType="extendedCode" updates="constant"/>\u000a        <Param name="End Experiment" val="" valType="extendedCode" updates="constant"/>\u000a      </CodeComponent>\u000a    </Routine>\u000a    <Routine name="code">\u000a      <CodeComponent name="read_CSV">\u000a        <Param name="Begin Experiment" val="" valType="extendedCode" updates="constant"/>\u000a        <Param name="name" val="read_CSV" valType="code" updates="None"/>\u000a        <Param name="Each Frame" val="" valType="extendedCode" updates="constant"/>\u000a        <Param name="Begin Routine" val="argument = argument.replace('&quot;', '')" valType="extendedCode" updates="constant"/>\u000a        <Param name="End Routine" val="" valType="extendedCode" updates="constant"/>\u000a        <Param name="End Experiment" val="" valType="extendedCode" updates="constant"/>\u000a      </CodeComponent>\u000a    </Routine>\u000a    <Routine name="end">\u000a      <TextComponent name="End">\u000a        <Param name="opacity" val="1" valType="code" updates="constant"/>\u000a        <Param name="colorSpace" val="rgb" valType="str" updates="constant"/>\u000a        <Param name="name" val="End" valType="code" updates="None"/>\u000a        <Param name="wrapWidth" val="35" valType="code" updates="constant"/>\u000a        <Param name="color" val="white" valType="str" updates="constant"/>\u000a        <Param name="text" val="Thanks for participating!&#10;&#10;Please turn around and tell the experimenter that you have finished!" valType="str" updates="constant"/>\u000a        <Param name="stopVal" val="5" valType="code" updates="constant"/>\u000a        <Param name="durationEstim" val="" valType="code" updates="None"/>\u000a        <Param name="pos" val="[0, 0]" valType="code" updates="constant"/>\u000a        <Param name="flip" val="" valType="str" updates="constant"/>\u000a        <Param name="startEstim" val="" valType="code" updates="None"/>\u000a        <Param name="units" val="cm" valType="str" updates="None"/>\u000a        <Param name="startType" val="time (s)" valType="str" updates="None"/>\u000a        <Param name="ori" val="0" valType="code" updates="constant"/>\u000a        <Param name="stopType" val="duration (s)" valType="str" updates="None"/>\u000a        <Param name="startVal" val="0.0" valType="code" updates="None"/>\u000a        <Param name="font" val="Arial" valType="str" updates="constant"/>\u000a        <Param name="letterHeight" val="1" valType="code" updates="constant"/>\u000a      </TextComponent>\u000a    </Routine>\u000a    <Routine name="next_arg">\u000a      <TextComponent name="text_3">\u000a        <Param name="opacity" val="1" valType="code" updates="constant"/>\u000a        <Param name="colorSpace" val="rgb" valType="str" updates="constant"/>\u000a        <Param name="name" val="text_3" valType="code" updates="None"/>\u000a        <Param name="wrapWidth" val="" valType="code" updates="constant"/>\u000a        <Param name="color" val="white" valType="str" updates="constant"/>\u000a        <Param name="text" val="Press SPACE when you are ready to read the next argument." valType="str" updates="constant"/>\u000a        <Param name="stopVal" val="" valType="code" updates="constant"/>\u000a        <Param name="durationEstim" val="" valType="code" updates="None"/>\u000a        <Param name="pos" val="[0, 0]" valType="code" updates="constant"/>\u000a        <Param name="flip" val="" valType="str" updates="constant"/>\u000a        <Param name="startEstim" val="" valType="code" updates="None"/>\u000a        <Param name="units" val="from exp settings" valType="str" updates="None"/>\u000a        <Param name="startType" val="time (s)" valType="str" updates="None"/>\u000a        <Param name="ori" val="0" valType="code" updates="constant"/>\u000a        <Param name="stopType" val="duration (s)" valType="str" updates="None"/>\u000a        <Param name="startVal" val="0.5" valType="code" updates="None"/>\u000a        <Param name="font" val="Arial" valType="str" updates="constant"/>\u000a        <Param name="letterHeight" val="0.1" valType="code" updates="constant"/>\u000a      </TextComponent>\u000a      <KeyboardComponent name="Next_Argument">\u000a        <Param name="correctAns" val="" valType="str" updates="constant"/>\u000a        <Param name="storeCorrect" val="False" valType="bool" updates="constant"/>\u000a        <Param name="name" val="Next_Argument" valType="code" updates="None"/>\u000a        <Param name="stopVal" val="" valType="code" updates="constant"/>\u000a        <Param name="durationEstim" val="" valType="code" updates="None"/>\u000a        <Param name="forceEndRoutine" val="True" valType="bool" updates="constant"/>\u000a        <Param name="startEstim" val="" valType="code" updates="None"/>\u000a        <Param name="discard previous" val="True" valType="bool" updates="constant"/>\u000a        <Param name="startType" val="time (s)" valType="str" updates="None"/>\u000a        <Param name="allowedKeys" val="'space'" valType="code" updates="constant"/>\u000a        <Param name="stopType" val="duration (s)" valType="str" updates="None"/>\u000a        <Param name="startVal" val="0.5" valType="code" updates="None"/>\u000a        <Param name="store" val="nothing" valType="str" updates="constant"/>\u000a      </KeyboardComponent>\u000a    </Routine>\u000a    <Routine name="question">\u000a      <TextComponent name="question_text">\u000a        <Param name="opacity" val="1" valType="code" updates="constant"/>\u000a        <Param name="colorSpace" val="rgb" valType="str" updates="constant"/>\u000a        <Param name="name" val="question_text" valType="code" updates="None"/>\u000a        <Param name="wrapWidth" val="35" valType="code" updates="constant"/>\u000a        <Param name="color" val="white" valType="str" updates="constant"/>\u000a        <Param name="text" val="$question" valType="str" updates="set every repeat"/>\u000a        <Param name="stopVal" val="" valType="code" updates="constant"/>\u000a        <Param name="durationEstim" val="" valType="code" updates="None"/>\u000a        <Param name="pos" val="[0, 0]" valType="code" updates="constant"/>\u000a        <Param name="flip" val="" valType="str" updates="constant"/>\u000a        <Param name="startEstim" val="" valType="code" updates="None"/>\u000a        <Param name="units" val="cm" valType="str" updates="None"/>\u000a        <Param name="startType" val="time (s)" valType="str" updates="None"/>\u000a        <Param name="ori" val="0" valType="code" updates="constant"/>\u000a        <Param name="stopType" val="duration (s)" valType="str" updates="None"/>\u000a        <Param name="startVal" val="0.5" valType="code" updates="None"/>\u000a        <Param name="font" val="Arial" valType="str" updates="constant"/>\u000a        <Param name="letterHeight" val="1" valType="code" updates="constant"/>\u000a      </TextComponent>\u000a      <KeyboardComponent name="rating">\u000a        <Param name="correctAns" val="" valType="str" updates="constant"/>\u000a        <Param name="storeCorrect" val="False" valType="bool" updates="constant"/>\u000a        <Param name="name" val="rating" valType="code" updates="None"/>\u000a        <Param name="stopVal" val="" valType="code" updates="constant"/>\u000a        <Param name="durationEstim" val="" valType="code" updates="None"/>\u000a        <Param name="forceEndRoutine" val="True" valType="bool" updates="constant"/>\u000a        <Param name="startEstim" val="" valType="code" updates="None"/>\u000a        <Param name="discard previous" val="True" valType="bool" updates="constant"/>\u000a        <Param name="startType" val="time (s)" valType="str" updates="None"/>\u000a        <Param name="allowedKeys" val="'1','2','3','4','5','6','7','8','9'" valType="code" updates="constant"/>\u000a        <Param name="stopType" val="duration (s)" valType="str" updates="None"/>\u000a        <Param name="startVal" val="0.5" valType="code" updates="None"/>\u000a        <Param name="store" val="last key" valType="str" updates="constant"/>\u000a      </KeyboardComponent>\u000a    </Routine>\u000a    <Routine name="argument">\u000a      <ImageComponent name="text_image">\u000a        <Param name="opacity" val="1" valType="code" updates="constant"/>\u000a        <Param name="flipVert" val="False" valType="bool" updates="constant"/>\u000a        <Param name="colorSpace" val="rgb" valType="str" updates="constant"/>\u000a        <Param name="name" val="text_image" valType="code" updates="constant"/>\u000a        <Param name="color" val="$[1,1,1]" valType="str" updates="constant"/>\u000a        <Param name="stopVal" val="1.0" valType="code" updates="constant"/>\u000a        <Param name="durationEstim" val="" valType="code" updates="None"/>\u000a        <Param name="mask" val="None" valType="str" updates="constant"/>\u000a        <Param name="pos" val="[0, 0]" valType="code" updates="constant"/>\u000a        <Param name="interpolate" val="" valType="str" updates="constant"/>\u000a        <Param name="startEstim" val="" valType="code" updates="None"/>\u000a        <Param name="units" val="from exp settings" valType="str" updates="None"/>\u000a        <Param name="texture resolution" val="128" valType="code" updates="constant"/>\u000a        <Param name="startType" val="time (s)" valType="str" updates="None"/>\u000a        <Param name="ori" val="0" valType="code" updates="constant"/>\u000a        <Param name="stopType" val="duration (s)" valType="str" updates="None"/>\u000a        <Param name="startVal" val="0.0" valType="code" updates="None"/>\u000a        <Param name="flipHoriz" val="False" valType="bool" updates="constant"/>\u000a        <Param name="image" val="$words" valType="str" updates="set every repeat"/>\u000a        <Param name="size" val="[1, 1]" valType="code" updates="constant"/>\u000a      </ImageComponent>\u000a    </Routine>\u000a    <Routine name="next_ques"/>\u000a    <Routine name="pause">\u000a      <TextComponent name="text_2">\u000a        <Param name="opacity" val="1" valType="code" updates="constant"/>\u000a        <Param name="colorSpace" val="rgb" valType="str" updates="constant"/>\u000a        <Param name="name" val="text_2" valType="code" updates="None"/>\u000a        <Param name="wrapWidth" val="" valType="code" updates="constant"/>\u000a        <Param name="color" val="white" valType="str" updates="constant"/>\u000a        <Param name="text" val="" valType="str" updates="constant"/>\u000a        <Param name="stopVal" val="1.5" valType="code" updates="constant"/>\u000a        <Param name="durationEstim" val="" valType="code" updates="None"/>\u000a        <Param name="pos" val="[0, 0]" valType="code" updates="constant"/>\u000a        <Param name="flip" val="" valType="str" updates="constant"/>\u000a        <Param name="startEstim" val="" valType="code" updates="None"/>\u000a        <Param name="units" val="from exp settings" valType="str" updates="None"/>\u000a        <Param name="startType" val="time (s)" valType="str" updates="None"/>\u000a        <Param name="ori" val="0" valType="code" updates="constant"/>\u000a        <Param name="stopType" val="duration (s)" valType="str" updates="None"/>\u000a        <Param name="startVal" val="0.0" valType="code" updates="None"/>\u000a        <Param name="font" val="Arial" valType="str" updates="constant"/>\u000a        <Param name="letterHeight" val="0.1" valType="code" updates="constant"/>\u000a      </TextComponent>\u000a    </Routine>\u000a    <Routine name="instructions">\u000a      <TextComponent name="Instructions">\u000a        <Param name="opacity" val="1" valType="code" updates="constant"/>\u000a        <Param name="colorSpace" val="rgb" valType="str" updates="constant"/>\u000a        <Param name="name" val="Instructions" valType="code" updates="None"/>\u000a        <Param name="wrapWidth" val="35" valType="code" updates="constant"/>\u000a        <Param name="color" val="white" valType="str" updates="constant"/>\u000a        <Param name="text" val="$text" valType="str" updates="set every repeat"/>\u000a        <Param name="stopVal" val="" valType="code" updates="constant"/>\u000a        <Param name="durationEstim" val="" valType="code" updates="None"/>\u000a        <Param name="pos" val="[0, 5]" valType="code" updates="constant"/>\u000a        <Param name="flip" val="" valType="str" updates="constant"/>\u000a        <Param name="startEstim" val="" valType="code" updates="None"/>\u000a        <Param name="units" val="cm" valType="str" updates="None"/>\u000a        <Param name="startType" val="time (s)" valType="str" updates="None"/>\u000a        <Param name="ori" val="0" valType="code" updates="constant"/>\u000a        <Param name="stopType" val="duration (s)" valType="str" updates="None"/>\u000a        <Param name="startVal" val="0.0" valType="code" updates="None"/>\u000a        <Param name="font" val="Arial" valType="str" updates="constant"/>\u000a        <Param name="letterHeight" val="1" valType="code" updates="constant"/>\u000a      </TextComponent>\u000a      <KeyboardComponent name="Next_Instr">\u000a        <Param name="correctAns" val="" valType="str" updates="constant"/>\u000a        <Param name="storeCorrect" val="False" valType="bool" updates="constant"/>\u000a        <Param name="name" val="Next_Instr" valType="code" updates="None"/>\u000a        <Param name="stopVal" val="" valType="code" updates="constant"/>\u000a        <Param name="durationEstim" val="" valType="code" updates="None"/>\u000a        <Param name="forceEndRoutine" val="True" valType="bool" updates="constant"/>\u000a        <Param name="startEstim" val="" valType="code" updates="None"/>\u000a        <Param name="discard previous" val="True" valType="bool" updates="constant"/>\u000a        <Param name="startType" val="time (s)" valType="str" updates="None"/>\u000a        <Param name="allowedKeys" val="'space'" valType="code" updates="constant"/>\u000a        <Param name="stopType" val="duration (s)" valType="str" updates="None"/>\u000a        <Param name="startVal" val="0.0" valType="code" updates="None"/>\u000a        <Param name="store" val="nothing" valType="str" updates="constant"/>\u000a      </KeyboardComponent>\u000a      <TextComponent name="Space_Continue">\u000a        <Param name="opacity" val="1" valType="code" updates="constant"/>\u000a        <Param name="colorSpace" val="rgb" valType="str" updates="constant"/>\u000a        <Param name="name" val="Space_Continue" valType="code" updates="None"/>\u000a        <Param name="wrapWidth" val="35" valType="code" updates="constant"/>\u000a        <Param name="color" val="white" valType="str" updates="constant"/>\u000a        <Param name="text" val="Press SPACE to continue" valType="str" updates="constant"/>\u000a        <Param name="stopVal" val="" valType="code" updates="constant"/>\u000a        <Param name="durationEstim" val="" valType="code" updates="None"/>\u000a        <Param name="pos" val="[0, -7]" valType="code" updates="constant"/>\u000a        <Param name="flip" val="" valType="str" updates="constant"/>\u000a        <Param name="startEstim" val="" valType="code" updates="None"/>\u000a        <Param name="units" val="cm" valType="str" updates="None"/>\u000a        <Param name="startType" val="time (s)" valType="str" updates="None"/>\u000a        <Param name="ori" val="0" valType="code" updates="constant"/>\u000a        <Param name="stopType" val="duration (s)" valType="str" updates="None"/>\u000a        <Param name="startVal" val="0.0" valType="code" updates="None"/>\u000a        <Param name="font" val="Arial" valType="str" updates="constant"/>\u000a        <Param name="letterHeight" val="1" valType="code" updates="constant"/>\u000a      </TextComponent>\u000a      <ImageComponent name="Instr_Pic">\u000a        <Param name="opacity" val="1" valType="code" updates="constant"/>\u000a        <Param name="flipVert" val="False" valType="bool" updates="constant"/>\u000a        <Param name="colorSpace" val="rgb" valType="str" updates="constant"/>\u000a        <Param name="name" val="Instr_Pic" valType="code" updates="constant"/>\u000a        <Param name="color" val="$[1,1,1]" valType="str" updates="constant"/>\u000a        <Param name="stopVal" val="" valType="code" updates="constant"/>\u000a        <Param name="durationEstim" val="" valType="code" updates="None"/>\u000a        <Param name="mask" val="None" valType="str" updates="constant"/>\u000a        <Param name="pos" val="[0, 0]" valType="code" updates="constant"/>\u000a        <Param name="interpolate" val="" valType="str" updates="constant"/>\u000a        <Param name="startEstim" val="" valType="code" updates="None"/>\u000a        <Param name="units" val="cm" valType="str" updates="None"/>\u000a        <Param name="texture resolution" val="128" valType="code" updates="constant"/>\u000a        <Param name="startType" val="time (s)" valType="str" updates="None"/>\u000a        <Param name="ori" val="0" valType="code" updates="constant"/>\u000a        <Param name="stopType" val="duration (s)" valType="str" updates="None"/>\u000a        <Param name="startVal" val="0.0" valType="code" updates="None"/>\u000a        <Param name="flipHoriz" val="False" valType="bool" updates="constant"/>\u000a        <Param name="image" val="$image" valType="str" updates="set every repeat"/>\u000a        <Param name="size" val="[1, 1]" valType="code" updates="constant"/>\u000a      </ImageComponent>\u000a    </Routine>\u000a  </Routines>\u000a  <Flow>\u000a    <LoopInitiator loopType="TrialHandler" name="instr_data">\u000a      <Param name="conditionsFile" val="instructions.xlsx" valType="str" updates="None"/>\u000a      <Param name="name" val="instr_data" valType="code" updates="None"/>\u000a      <Param name="random seed" val="" valType="code" updates="None"/>\u000a      <Param name="loopType" val="sequential" valType="str" updates="None"/>\u000a      <Param name="nReps" val="1" valType="code" updates="None"/>\u000a      <Param name="endPoints" val="[0, 1]" valType="num" updates="None"/>\u000a      <Param name="conditions" val="[{u'text': u'We are piloting a new method for group-grading exam questions. In this first section you will be reading aloud several arguments taken from LAW 204, Written and Oral Advocacy, taught at the UC Berkeley Law School.', u'image': u'nothing.jpg'}, {u'text': u'You will read through student responses taken from the essay portion of the midterm exam. In order to give an objective analysis, you will be asked to read the essay responses aloud. In addition, sentences from each essay response will be presented phrase-by-phrase, not all at once.', u'image': u'nothing.jpg'}, {u'text': u'Handwriting has been cropped and digitized into snippets like the one below, each of which contain individual phrases:', u'image': u'words\u005c\u005cexample.jpg'}, {u'text': u'These snippets of text will appear on the screen for only one second each. When each phrase appears please read it out loud.', u'image': u'nothing.jpg'}, {u'text': u'After you have read through each argument, you will be asked several questions about the complete argument. Please try to answer these questions as objectively as possible, as if you were a teaching assistant grading this exam.', u'image': u'nothing.jpg'}, {u'text': u&quot;After this slide you'll begin a practice session in order to familiarize yourself with how to evaluate these arguments. An experimenter will stand by to correct you if you make any mistakes. If you have any questions, please ask the experimenter now.&quot;, u'image': u'nothing.jpg'}]" valType="str" updates="None"/>\u000a    </LoopInitiator>\u000a    <Routine name="instructions"/>\u000a    <LoopTerminator name="instr_data"/>\u000a    <Routine name="pause"/>\u000a    <LoopInitiator loopType="TrialHandler" name="arguments_data">\u000a      <Param name="conditionsFile" val="arguments.csv" valType="str" updates="None"/>\u000a      <Param name="name" val="arguments_data" valType="code" updates="None"/>\u000a      <Param name="random seed" val="" valType="code" updates="None"/>\u000a      <Param name="loopType" val="random" valType="str" updates="None"/>\u000a      <Param name="nReps" val="1" valType="code" updates="None"/>\u000a      <Param name="endPoints" val="[0, 1]" valType="num" updates="None"/>\u000a      <Param name="conditions" val="[{'argument': u'clear_01.csv'}, {'argument': u'messy_01.csv'}]" valType="str" updates="None"/>\u000a    </LoopInitiator>\u000a    <Routine name="code"/>\u000a    <LoopInitiator loopType="TrialHandler" name="word_data">\u000a      <Param name="conditionsFile" val="$argument" valType="str" updates="None"/>\u000a      <Param name="name" val="word_data" valType="code" updates="None"/>\u000a      <Param name="random seed" val="" valType="code" updates="None"/>\u000a      <Param name="loopType" val="sequential" valType="str" updates="None"/>\u000a      <Param name="nReps" val="1" valType="code" updates="None"/>\u000a      <Param name="endPoints" val="[0, 1]" valType="num" updates="None"/>\u000a      <Param name="conditions" val="None" valType="str" updates="None"/>\u000a    </LoopInitiator>\u000a    <Routine name="code2"/>\u000a    <Routine name="argument"/>\u000a    <LoopTerminator name="word_data"/>\u000a    <LoopInitiator loopType="TrialHandler" name="questions">\u000a      <Param name="conditionsFile" val="questions.csv" valType="str" updates="None"/>\u000a      <Param name="name" val="questions" valType="code" updates="None"/>\u000a      <Param name="random seed" val="" valType="code" updates="None"/>\u000a      <Param name="loopType" val="random" valType="str" updates="None"/>\u000a      <Param name="nReps" val="1" valType="code" updates="None"/>\u000a      <Param name="endPoints" val="[0, 1]" valType="num" updates="None"/>\u000a      <Param name="conditions" val="None" valType="str" updates="None"/>\u000a    </LoopInitiator>\u000a    <Routine name="question"/>\u000a    <LoopTerminator name="questions"/>\u000a    <Routine name="next_arg"/>\u000a    <LoopTerminator name="arguments_data"/>\u000a    <Routine name="end"/>\u000a  </Flow>\u000a</PsychoPy2experiment>\u000a
p36
sS'thisTrial'
p37
g1
(cpsychopy.data
TrialType
p38
c__builtin__
dict
p39
(dp40
S'argument'
p41
V"clear_01.csv"
p42
stRp43
sS'_exp'
p44
I60508848
sg11
S'arguments_data'
p45
sg6
g7
sS'thisRepN'
p46
I0
sg15
I01
sg16
g17
sS'data'
p47
g1
(cpsychopy.data
DataHandler
p48
g39
(dp49
S'ran'
p50
cnumpy.ma.core
_mareconstruct
p51
(cnumpy.ma.core
MaskedArray
p52
cnumpy
ndarray
p53
(I0
tp54
S'b'
tRp55
(I1
(I2
I1
tg22
(S'f4'
I0
I1
tRp56
(I3
S'<'
NNNI-1
I-1
I0
tbI00
S'\x00\x00\x80?\x00\x00\x00\x00'
S'\x00\x00'
NtbsS'order'
p57
g51
(g52
g53
g54
S'b'
tRp58
(I1
(I2
I1
tg56
I00
S'\x00\x00\x00\x00\x00\x00\x00\x00'
S'\x00\x01'
NtbstRp59
(dp60
S'isNumeric'
p61
(dp62
g50
I01
sg57
I01
ssS'trials'
p63
g33
sS'dataTypes'
p64
(lp65
g50
ag57
asS'dataShape'
p66
(lp67
I2
aI1
asbsS'method'
p68
Vrandom
p69
sS'sequenceIndices'
p70
cnumpy.core.multiarray
_reconstruct
p71
(g53
(I0
tS'b'
tRp72
(I1
(I2
I1
tg22
(S'i4'
I0
I1
tRp73
(I3
S'<'
NNNI-1
I-1
I0
tbI01
S'\x00\x00\x00\x00\x01\x00\x00\x00'
tbsS'finished'
p74
I00
sS'nReps'
p75
I1
sS'nRemaining'
p76
I1
sS'trialList'
p77
(lp78
g43
ag1
(g38
g39
(dp79
g41
V"messy_01.csv"
p80
stRp81
asS'seed'
p82
NsS'thisIndex'
p83
g21
(g73
S'\x00\x00\x00\x00'
tRp84
sS'thisN'
p85
I0
sS'thisTrialN'
p86
I0
sS'nTotal'
p87
I2
sS'_warnUseOfNext'
p88
I01
sbag1
(g32
g3
NtRp89
(dp90
g35
V<PsychoPy2experiment version="1.80.03" encoding="utf-8">\u000a  <Settings>\u000a    <Param name="Show mouse" val="False" valType="bool" updates="None"/>\u000a    <Param name="Data filename" val="'data/%s_%s_%s' %(expInfo['participant'], expName, expInfo['date'])" valType="code" updates="None"/>\u000a    <Param name="Monitor" val="testMonitor" valType="str" updates="None"/>\u000a    <Param name="Enable Escape" val="True" valType="bool" updates="None"/>\u000a    <Param name="color" val="$[0,0,0]" valType="str" updates="None"/>\u000a    <Param name="Window size (pixels)" val="[1024, 768]" valType="code" updates="None"/>\u000a    <Param name="Full-screen window" val="True" valType="bool" updates="None"/>\u000a    <Param name="colorSpace" val="rgb" valType="str" updates="None"/>\u000a    <Param name="Experiment info" val="{'participant':'', 'session':'001'}" valType="code" updates="None"/>\u000a    <Param name="Save csv file" val="False" valType="bool" updates="None"/>\u000a    <Param name="Show info dlg" val="True" valType="bool" updates="None"/>\u000a    <Param name="Save wide csv file" val="True" valType="bool" updates="None"/>\u000a    <Param name="Save psydat file" val="True" valType="bool" updates="None"/>\u000a    <Param name="expName" val="Arguments" valType="str" updates="None"/>\u000a    <Param name="logging level" val="exp" valType="code" updates="None"/>\u000a    <Param name="blendMode" val="avg" valType="str" updates="None"/>\u000a    <Param name="Save excel file" val="False" valType="bool" updates="None"/>\u000a    <Param name="Units" val="use prefs" valType="str" updates="None"/>\u000a    <Param name="Save log file" val="True" valType="bool" updates="None"/>\u000a    <Param name="Screen" val="1" valType="num" updates="None"/>\u000a  </Settings>\u000a  <Routines>\u000a    <Routine name="code2">\u000a      <CodeComponent name="read_CSV2">\u000a        <Param name="Begin Experiment" val="" valType="extendedCode" updates="constant"/>\u000a        <Param name="name" val="read_CSV2" valType="code" updates="None"/>\u000a        <Param name="Each Frame" val="" valType="extendedCode" updates="constant"/>\u000a        <Param name="Begin Routine" val="words = words.replace('&quot;','')" valType="extendedCode" updates="constant"/>\u000a        <Param name="End Routine" val="" valType="extendedCode" updates="constant"/>\u000a        <Param name="End Experiment" val="" valType="extendedCode" updates="constant"/>\u000a      </CodeComponent>\u000a    </Routine>\u000a    <Routine name="code">\u000a      <CodeComponent name="read_CSV">\u000a        <Param name="Begin Experiment" val="" valType="extendedCode" updates="constant"/>\u000a        <Param name="name" val="read_CSV" valType="code" updates="None"/>\u000a        <Param name="Each Frame" val="" valType="extendedCode" updates="constant"/>\u000a        <Param name="Begin Routine" val="argument = argument.replace('&quot;', '')" valType="extendedCode" updates="constant"/>\u000a        <Param name="End Routine" val="" valType="extendedCode" updates="constant"/>\u000a        <Param name="End Experiment" val="" valType="extendedCode" updates="constant"/>\u000a      </CodeComponent>\u000a    </Routine>\u000a    <Routine name="end">\u000a      <TextComponent name="End">\u000a        <Param name="opacity" val="1" valType="code" updates="constant"/>\u000a        <Param name="colorSpace" val="rgb" valType="str" updates="constant"/>\u000a        <Param name="name" val="End" valType="code" updates="None"/>\u000a        <Param name="wrapWidth" val="35" valType="code" updates="constant"/>\u000a        <Param name="color" val="white" valType="str" updates="constant"/>\u000a        <Param name="text" val="Thanks for participating!&#10;&#10;Please turn around and tell the experimenter that you have finished!" valType="str" updates="constant"/>\u000a        <Param name="stopVal" val="5" valType="code" updates="constant"/>\u000a        <Param name="durationEstim" val="" valType="code" updates="None"/>\u000a        <Param name="pos" val="[0, 0]" valType="code" updates="constant"/>\u000a        <Param name="flip" val="" valType="str" updates="constant"/>\u000a        <Param name="startEstim" val="" valType="code" updates="None"/>\u000a        <Param name="units" val="cm" valType="str" updates="None"/>\u000a        <Param name="startType" val="time (s)" valType="str" updates="None"/>\u000a        <Param name="ori" val="0" valType="code" updates="constant"/>\u000a        <Param name="stopType" val="duration (s)" valType="str" updates="None"/>\u000a        <Param name="startVal" val="0.0" valType="code" updates="None"/>\u000a        <Param name="font" val="Arial" valType="str" updates="constant"/>\u000a        <Param name="letterHeight" val="1" valType="code" updates="constant"/>\u000a      </TextComponent>\u000a    </Routine>\u000a    <Routine name="next_arg">\u000a      <TextComponent name="text_3">\u000a        <Param name="opacity" val="1" valType="code" updates="constant"/>\u000a        <Param name="colorSpace" val="rgb" valType="str" updates="constant"/>\u000a        <Param name="name" val="text_3" valType="code" updates="None"/>\u000a        <Param name="wrapWidth" val="" valType="code" updates="constant"/>\u000a        <Param name="color" val="white" valType="str" updates="constant"/>\u000a        <Param name="text" val="Press SPACE when you are ready to read the next argument." valType="str" updates="constant"/>\u000a        <Param name="stopVal" val="" valType="code" updates="constant"/>\u000a        <Param name="durationEstim" val="" valType="code" updates="None"/>\u000a        <Param name="pos" val="[0, 0]" valType="code" updates="constant"/>\u000a        <Param name="flip" val="" valType="str" updates="constant"/>\u000a        <Param name="startEstim" val="" valType="code" updates="None"/>\u000a        <Param name="units" val="from exp settings" valType="str" updates="None"/>\u000a        <Param name="startType" val="time (s)" valType="str" updates="None"/>\u000a        <Param name="ori" val="0" valType="code" updates="constant"/>\u000a        <Param name="stopType" val="duration (s)" valType="str" updates="None"/>\u000a        <Param name="startVal" val="0.5" valType="code" updates="None"/>\u000a        <Param name="font" val="Arial" valType="str" updates="constant"/>\u000a        <Param name="letterHeight" val="0.1" valType="code" updates="constant"/>\u000a      </TextComponent>\u000a      <KeyboardComponent name="Next_Argument">\u000a        <Param name="correctAns" val="" valType="str" updates="constant"/>\u000a        <Param name="storeCorrect" val="False" valType="bool" updates="constant"/>\u000a        <Param name="name" val="Next_Argument" valType="code" updates="None"/>\u000a        <Param name="stopVal" val="" valType="code" updates="constant"/>\u000a        <Param name="durationEstim" val="" valType="code" updates="None"/>\u000a        <Param name="forceEndRoutine" val="True" valType="bool" updates="constant"/>\u000a        <Param name="startEstim" val="" valType="code" updates="None"/>\u000a        <Param name="discard previous" val="True" valType="bool" updates="constant"/>\u000a        <Param name="startType" val="time (s)" valType="str" updates="None"/>\u000a        <Param name="allowedKeys" val="'space'" valType="code" updates="constant"/>\u000a        <Param name="stopType" val="duration (s)" valType="str" updates="None"/>\u000a        <Param name="startVal" val="0.5" valType="code" updates="None"/>\u000a        <Param name="store" val="nothing" valType="str" updates="constant"/>\u000a      </KeyboardComponent>\u000a    </Routine>\u000a    <Routine name="question">\u000a      <TextComponent name="question_text">\u000a        <Param name="opacity" val="1" valType="code" updates="constant"/>\u000a        <Param name="colorSpace" val="rgb" valType="str" updates="constant"/>\u000a        <Param name="name" val="question_text" valType="code" updates="None"/>\u000a        <Param name="wrapWidth" val="35" valType="code" updates="constant"/>\u000a        <Param name="color" val="white" valType="str" updates="constant"/>\u000a        <Param name="text" val="$question" valType="str" updates="set every repeat"/>\u000a        <Param name="stopVal" val="" valType="code" updates="constant"/>\u000a        <Param name="durationEstim" val="" valType="code" updates="None"/>\u000a        <Param name="pos" val="[0, 0]" valType="code" updates="constant"/>\u000a        <Param name="flip" val="" valType="str" updates="constant"/>\u000a        <Param name="startEstim" val="" valType="code" updates="None"/>\u000a        <Param name="units" val="cm" valType="str" updates="None"/>\u000a        <Param name="startType" val="time (s)" valType="str" updates="None"/>\u000a        <Param name="ori" val="0" valType="code" updates="constant"/>\u000a        <Param name="stopType" val="duration (s)" valType="str" updates="None"/>\u000a        <Param name="startVal" val="0.5" valType="code" updates="None"/>\u000a        <Param name="font" val="Arial" valType="str" updates="constant"/>\u000a        <Param name="letterHeight" val="1" valType="code" updates="constant"/>\u000a      </TextComponent>\u000a      <KeyboardComponent name="rating">\u000a        <Param name="correctAns" val="" valType="str" updates="constant"/>\u000a        <Param name="storeCorrect" val="False" valType="bool" updates="constant"/>\u000a        <Param name="name" val="rating" valType="code" updates="None"/>\u000a        <Param name="stopVal" val="" valType="code" updates="constant"/>\u000a        <Param name="durationEstim" val="" valType="code" updates="None"/>\u000a        <Param name="forceEndRoutine" val="True" valType="bool" updates="constant"/>\u000a        <Param name="startEstim" val="" valType="code" updates="None"/>\u000a        <Param name="discard previous" val="True" valType="bool" updates="constant"/>\u000a        <Param name="startType" val="time (s)" valType="str" updates="None"/>\u000a        <Param name="allowedKeys" val="'1','2','3','4','5','6','7','8','9'" valType="code" updates="constant"/>\u000a        <Param name="stopType" val="duration (s)" valType="str" updates="None"/>\u000a        <Param name="startVal" val="0.5" valType="code" updates="None"/>\u000a        <Param name="store" val="last key" valType="str" updates="constant"/>\u000a      </KeyboardComponent>\u000a    </Routine>\u000a    <Routine name="argument">\u000a      <ImageComponent name="text_image">\u000a        <Param name="opacity" val="1" valType="code" updates="constant"/>\u000a        <Param name="flipVert" val="False" valType="bool" updates="constant"/>\u000a        <Param name="colorSpace" val="rgb" valType="str" updates="constant"/>\u000a        <Param name="name" val="text_image" valType="code" updates="constant"/>\u000a        <Param name="color" val="$[1,1,1]" valType="str" updates="constant"/>\u000a        <Param name="stopVal" val="1.0" valType="code" updates="constant"/>\u000a        <Param name="durationEstim" val="" valType="code" updates="None"/>\u000a        <Param name="mask" val="None" valType="str" updates="constant"/>\u000a        <Param name="pos" val="[0, 0]" valType="code" updates="constant"/>\u000a        <Param name="interpolate" val="" valType="str" updates="constant"/>\u000a        <Param name="startEstim" val="" valType="code" updates="None"/>\u000a        <Param name="units" val="from exp settings" valType="str" updates="None"/>\u000a        <Param name="texture resolution" val="128" valType="code" updates="constant"/>\u000a        <Param name="startType" val="time (s)" valType="str" updates="None"/>\u000a        <Param name="ori" val="0" valType="code" updates="constant"/>\u000a        <Param name="stopType" val="duration (s)" valType="str" updates="None"/>\u000a        <Param name="startVal" val="0.0" valType="code" updates="None"/>\u000a        <Param name="flipHoriz" val="False" valType="bool" updates="constant"/>\u000a        <Param name="image" val="$words" valType="str" updates="set every repeat"/>\u000a        <Param name="size" val="[1, 1]" valType="code" updates="constant"/>\u000a      </ImageComponent>\u000a    </Routine>\u000a    <Routine name="next_ques"/>\u000a    <Routine name="pause">\u000a      <TextComponent name="text_2">\u000a        <Param name="opacity" val="1" valType="code" updates="constant"/>\u000a        <Param name="colorSpace" val="rgb" valType="str" updates="constant"/>\u000a        <Param name="name" val="text_2" valType="code" updates="None"/>\u000a        <Param name="wrapWidth" val="" valType="code" updates="constant"/>\u000a        <Param name="color" val="white" valType="str" updates="constant"/>\u000a        <Param name="text" val="" valType="str" updates="constant"/>\u000a        <Param name="stopVal" val="1.5" valType="code" updates="constant"/>\u000a        <Param name="durationEstim" val="" valType="code" updates="None"/>\u000a        <Param name="pos" val="[0, 0]" valType="code" updates="constant"/>\u000a        <Param name="flip" val="" valType="str" updates="constant"/>\u000a        <Param name="startEstim" val="" valType="code" updates="None"/>\u000a        <Param name="units" val="from exp settings" valType="str" updates="None"/>\u000a        <Param name="startType" val="time (s)" valType="str" updates="None"/>\u000a        <Param name="ori" val="0" valType="code" updates="constant"/>\u000a        <Param name="stopType" val="duration (s)" valType="str" updates="None"/>\u000a        <Param name="startVal" val="0.0" valType="code" updates="None"/>\u000a        <Param name="font" val="Arial" valType="str" updates="constant"/>\u000a        <Param name="letterHeight" val="0.1" valType="code" updates="constant"/>\u000a      </TextComponent>\u000a    </Routine>\u000a    <Routine name="instructions">\u000a      <TextComponent name="Instructions">\u000a        <Param name="opacity" val="1" valType="code" updates="constant"/>\u000a        <Param name="colorSpace" val="rgb" valType="str" updates="constant"/>\u000a        <Param name="name" val="Instructions" valType="code" updates="None"/>\u000a        <Param name="wrapWidth" val="35" valType="code" updates="constant"/>\u000a        <Param name="color" val="white" valType="str" updates="constant"/>\u000a        <Param name="text" val="$text" valType="str" updates="set every repeat"/>\u000a        <Param name="stopVal" val="" valType="code" updates="constant"/>\u000a        <Param name="durationEstim" val="" valType="code" updates="None"/>\u000a        <Param name="pos" val="[0, 5]" valType="code" updates="constant"/>\u000a        <Param name="flip" val="" valType="str" updates="constant"/>\u000a        <Param name="startEstim" val="" valType="code" updates="None"/>\u000a        <Param name="units" val="cm" valType="str" updates="None"/>\u000a        <Param name="startType" val="time (s)" valType="str" updates="None"/>\u000a        <Param name="ori" val="0" valType="code" updates="constant"/>\u000a        <Param name="stopType" val="duration (s)" valType="str" updates="None"/>\u000a        <Param name="startVal" val="0.0" valType="code" updates="None"/>\u000a        <Param name="font" val="Arial" valType="str" updates="constant"/>\u000a        <Param name="letterHeight" val="1" valType="code" updates="constant"/>\u000a      </TextComponent>\u000a      <KeyboardComponent name="Next_Instr">\u000a        <Param name="correctAns" val="" valType="str" updates="constant"/>\u000a        <Param name="storeCorrect" val="False" valType="bool" updates="constant"/>\u000a        <Param name="name" val="Next_Instr" valType="code" updates="None"/>\u000a        <Param name="stopVal" val="" valType="code" updates="constant"/>\u000a        <Param name="durationEstim" val="" valType="code" updates="None"/>\u000a        <Param name="forceEndRoutine" val="True" valType="bool" updates="constant"/>\u000a        <Param name="startEstim" val="" valType="code" updates="None"/>\u000a        <Param name="discard previous" val="True" valType="bool" updates="constant"/>\u000a        <Param name="startType" val="time (s)" valType="str" updates="None"/>\u000a        <Param name="allowedKeys" val="'space'" valType="code" updates="constant"/>\u000a        <Param name="stopType" val="duration (s)" valType="str" updates="None"/>\u000a        <Param name="startVal" val="0.0" valType="code" updates="None"/>\u000a        <Param name="store" val="nothing" valType="str" updates="constant"/>\u000a      </KeyboardComponent>\u000a      <TextComponent name="Space_Continue">\u000a        <Param name="opacity" val="1" valType="code" updates="constant"/>\u000a        <Param name="colorSpace" val="rgb" valType="str" updates="constant"/>\u000a        <Param name="name" val="Space_Continue" valType="code" updates="None"/>\u000a        <Param name="wrapWidth" val="35" valType="code" updates="constant"/>\u000a        <Param name="color" val="white" valType="str" updates="constant"/>\u000a        <Param name="text" val="Press SPACE to continue" valType="str" updates="constant"/>\u000a        <Param name="stopVal" val="" valType="code" updates="constant"/>\u000a        <Param name="durationEstim" val="" valType="code" updates="None"/>\u000a        <Param name="pos" val="[0, -7]" valType="code" updates="constant"/>\u000a        <Param name="flip" val="" valType="str" updates="constant"/>\u000a        <Param name="startEstim" val="" valType="code" updates="None"/>\u000a        <Param name="units" val="cm" valType="str" updates="None"/>\u000a        <Param name="startType" val="time (s)" valType="str" updates="None"/>\u000a        <Param name="ori" val="0" valType="code" updates="constant"/>\u000a        <Param name="stopType" val="duration (s)" valType="str" updates="None"/>\u000a        <Param name="startVal" val="0.0" valType="code" updates="None"/>\u000a        <Param name="font" val="Arial" valType="str" updates="constant"/>\u000a        <Param name="letterHeight" val="1" valType="code" updates="constant"/>\u000a      </TextComponent>\u000a      <ImageComponent name="Instr_Pic">\u000a        <Param name="opacity" val="1" valType="code" updates="constant"/>\u000a        <Param name="flipVert" val="False" valType="bool" updates="constant"/>\u000a        <Param name="colorSpace" val="rgb" valType="str" updates="constant"/>\u000a        <Param name="name" val="Instr_Pic" valType="code" updates="constant"/>\u000a        <Param name="color" val="$[1,1,1]" valType="str" updates="constant"/>\u000a        <Param name="stopVal" val="" valType="code" updates="constant"/>\u000a        <Param name="durationEstim" val="" valType="code" updates="None"/>\u000a        <Param name="mask" val="None" valType="str" updates="constant"/>\u000a        <Param name="pos" val="[0, 0]" valType="code" updates="constant"/>\u000a        <Param name="interpolate" val="" valType="str" updates="constant"/>\u000a        <Param name="startEstim" val="" valType="code" updates="None"/>\u000a        <Param name="units" val="cm" valType="str" updates="None"/>\u000a        <Param name="texture resolution" val="128" valType="code" updates="constant"/>\u000a        <Param name="startType" val="time (s)" valType="str" updates="None"/>\u000a        <Param name="ori" val="0" valType="code" updates="constant"/>\u000a        <Param name="stopType" val="duration (s)" valType="str" updates="None"/>\u000a        <Param name="startVal" val="0.0" valType="code" updates="None"/>\u000a        <Param name="flipHoriz" val="False" valType="bool" updates="constant"/>\u000a        <Param name="image" val="$image" valType="str" updates="set every repeat"/>\u000a        <Param name="size" val="[1, 1]" valType="code" updates="constant"/>\u000a      </ImageComponent>\u000a    </Routine>\u000a  </Routines>\u000a  <Flow>\u000a    <LoopInitiator loopType="TrialHandler" name="instr_data">\u000a      <Param name="conditionsFile" val="instructions.xlsx" valType="str" updates="None"/>\u000a      <Param name="name" val="instr_data" valType="code" updates="None"/>\u000a      <Param name="random seed" val="" valType="code" updates="None"/>\u000a      <Param name="loopType" val="sequential" valType="str" updates="None"/>\u000a      <Param name="nReps" val="1" valType="code" updates="None"/>\u000a      <Param name="endPoints" val="[0, 1]" valType="num" updates="None"/>\u000a      <Param name="conditions" val="[{u'text': u'We are piloting a new method for group-grading exam questions. In this first section you will be reading aloud several arguments taken from LAW 204, Written and Oral Advocacy, taught at the UC Berkeley Law School.', u'image': u'nothing.jpg'}, {u'text': u'You will read through student responses taken from the essay portion of the midterm exam. In order to give an objective analysis, you will be asked to read the essay responses aloud. In addition, sentences from each essay response will be presented phrase-by-phrase, not all at once.', u'image': u'nothing.jpg'}, {u'text': u'Handwriting has been cropped and digitized into snippets like the one below, each of which contain individual phrases:', u'image': u'words\u005c\u005cexample.jpg'}, {u'text': u'These snippets of text will appear on the screen for only one second each. When each phrase appears please read it out loud.', u'image': u'nothing.jpg'}, {u'text': u'After you have read through each argument, you will be asked several questions about the complete argument. Please try to answer these questions as objectively as possible, as if you were a teaching assistant grading this exam.', u'image': u'nothing.jpg'}, {u'text': u&quot;After this slide you'll begin a practice session in order to familiarize yourself with how to evaluate these arguments. An experimenter will stand by to correct you if you make any mistakes. If you have any questions, please ask the experimenter now.&quot;, u'image': u'nothing.jpg'}]" valType="str" updates="None"/>\u000a    </LoopInitiator>\u000a    <Routine name="instructions"/>\u000a    <LoopTerminator name="instr_data"/>\u000a    <Routine name="pause"/>\u000a    <LoopInitiator loopType="TrialHandler" name="arguments_data">\u000a      <Param name="conditionsFile" val="arguments.csv" valType="str" updates="None"/>\u000a      <Param name="name" val="arguments_data" valType="code" updates="None"/>\u000a      <Param name="random seed" val="" valType="code" updates="None"/>\u000a      <Param name="loopType" val="random" valType="str" updates="None"/>\u000a      <Param name="nReps" val="1" valType="code" updates="None"/>\u000a      <Param name="endPoints" val="[0, 1]" valType="num" updates="None"/>\u000a      <Param name="conditions" val="[{'argument': u'clear_01.csv'}, {'argument': u'messy_01.csv'}]" valType="str" updates="None"/>\u000a    </LoopInitiator>\u000a    <Routine name="code"/>\u000a    <LoopInitiator loopType="TrialHandler" name="word_data">\u000a      <Param name="conditionsFile" val="$argument" valType="str" updates="None"/>\u000a      <Param name="name" val="word_data" valType="code" updates="None"/>\u000a      <Param name="random seed" val="" valType="code" updates="None"/>\u000a      <Param name="loopType" val="sequential" valType="str" updates="None"/>\u000a      <Param name="nReps" val="1" valType="code" updates="None"/>\u000a      <Param name="endPoints" val="[0, 1]" valType="num" updates="None"/>\u000a      <Param name="conditions" val="None" valType="str" updates="None"/>\u000a    </LoopInitiator>\u000a    <Routine name="code2"/>\u000a    <Routine name="argument"/>\u000a    <LoopTerminator name="word_data"/>\u000a    <LoopInitiator loopType="TrialHandler" name="questions">\u000a      <Param name="conditionsFile" val="questions.csv" valType="str" updates="None"/>\u000a      <Param name="name" val="questions" valType="code" updates="None"/>\u000a      <Param name="random seed" val="" valType="code" updates="None"/>\u000a      <Param name="loopType" val="random" valType="str" updates="None"/>\u000a      <Param name="nReps" val="1" valType="code" updates="None"/>\u000a      <Param name="endPoints" val="[0, 1]" valType="num" updates="None"/>\u000a      <Param name="conditions" val="None" valType="str" updates="None"/>\u000a    </LoopInitiator>\u000a    <Routine name="question"/>\u000a    <LoopTerminator name="questions"/>\u000a    <Routine name="next_arg"/>\u000a    <LoopTerminator name="arguments_data"/>\u000a    <Routine name="end"/>\u000a  </Flow>\u000a</PsychoPy2experiment>\u000a
p91
sg37
g1
(g38
g39
(dp92
S'question'
p93
V"There were logical flaws in this argument."
p94
stRp95
sg44
I60508848
sg11
S'questions'
p96
sg6
g7
sg46
I0
sg15
I01
sg16
g17
sg47
g1
(g48
g39
(dp97
g50
g51
(g52
g53
g54
S'b'
tRp98
(I1
(I5
I1
tg56
I00
S'\x00\x00\x00\x00\x00\x00\x80?\x00\x00\x00\x00\x00\x00\x00\x00\x00\x00\x00\x00'
S'\x00\x00\x00\x00\x00'
Ntbsg57
g51
(g52
g53
g54
S'b'
tRp99
(I1
(I5
I1
tg56
I00
S'\x00\x00\x00\x00\x00\x00\x00\x00\x00\x00\x00\x00\x00\x00\x00\x00\x00\x00\x00\x00'
S'\x01\x00\x01\x01\x01'
NtbstRp100
(dp101
g61
(dp102
g50
I01
sg57
I01
ssg63
g89
sg64
(lp103
g50
ag57
asg66
(lp104
I5
aI1
asbsg68
g69
sg70
g71
(g53
(I0
tS'b'
tRp105
(I1
(I5
I1
tg73
I01
S'\x01\x00\x00\x00\x02\x00\x00\x00\x03\x00\x00\x00\x04\x00\x00\x00\x00\x00\x00\x00'
tbsg74
I00
sg75
I1
sg76
I4
sg77
(lp106
g1
(g38
g39
(dp107
g93
V"This argument was convincing."
p108
stRp109
ag95
ag1
(g38
g39
(dp110
g93
V"This was a well formed argument."
p111
stRp112
ag1
(g38
g39
(dp113
g93
V"This argument might be wrong but it was well argued nonetheless."
p114
stRp115
ag1
(g38
g39
(dp116
g93
V"This argument was unconvincing."
p117
stRp118
asg82
Nsg83
g21
(g73
S'\x01\x00\x00\x00'
tRp119
sg85
I0
sg86
I0
sg87
I5
sg88
I01
sbasS'saveWideText'
p120
I01
sS'thisEntry'
p121
(dp122
sS'version'
p123
S''
sS'_paramNamesSoFar'
p124
(lp125
Vtext
p126
aVimage
p127
ag41
aS'words'
p128
asS'entries'
p129
(lp130
(dp131
g26
g27
sg28
g29
sS'instr_data.thisRepN'
p132
I0
sg126
VWe are piloting a new method for group-grading exam questions. In this first section you will be reading aloud several arguments taken from LAW 204, Written and Oral Advocacy, taught at the UC Berkeley Law School.
p133
sg127
Vnothing.jpg
p134
sg20
g24
sS'instr_data.thisTrialN'
p135
I0
sg25
g12
sg18
g19
sS'instr_data.thisN'
p136
I0
sS'instr_data.thisIndex'
p137
g21
(g73
S'\x00\x00\x00\x00'
tRp138
sa(dp139
g26
g27
sg28
g29
sS'instr_data.thisRepN'
p140
I0
sg126
VYou will read through student responses taken from the essay portion of the midterm exam. In order to give an objective analysis, you will be asked to read the essay responses aloud. In addition, sentences from each essay response will be presented phrase-by-phrase, not all at once.
p141
sg127
Vnothing.jpg
p142
sg20
g24
sS'instr_data.thisTrialN'
p143
I1
sg25
g12
sg18
g19
sS'instr_data.thisN'
p144
I1
sS'instr_data.thisIndex'
p145
g21
(g73
S'\x01\x00\x00\x00'
tRp146
sa(dp147
g26
g27
sg28
g29
sS'instr_data.thisRepN'
p148
I0
sg126
VHandwriting has been cropped and digitized into snippets like the one below, each of which contain individual phrases:
p149
sg127
Vwords\u005cexample.jpg
p150
sg20
g24
sS'instr_data.thisTrialN'
p151
I2
sg25
g12
sg18
g19
sS'instr_data.thisN'
p152
I2
sS'instr_data.thisIndex'
p153
g21
(g73
S'\x02\x00\x00\x00'
tRp154
sa(dp155
g26
g27
sg28
g29
sS'instr_data.thisRepN'
p156
I0
sg126
VThese snippets of text will appear on the screen for only one second each. When each phrase appears please read it out loud.
p157
sg127
Vnothing.jpg
p158
sg20
g24
sS'instr_data.thisTrialN'
p159
I3
sg25
g12
sg18
g19
sS'instr_data.thisN'
p160
I3
sS'instr_data.thisIndex'
p161
g21
(g73
S'\x03\x00\x00\x00'
tRp162
sa(dp163
g26
g27
sg28
g29
sS'instr_data.thisRepN'
p164
I0
sg126
VAfter you have read through each argument, you will be asked several questions about the complete argument. Please try to answer these questions as objectively as possible, as if you were a teaching assistant grading this exam.
p165
sg127
Vnothing.jpg
p166
sg20
g24
sS'instr_data.thisTrialN'
p167
I4
sg25
g12
sg18
g19
sS'instr_data.thisN'
p168
I4
sS'instr_data.thisIndex'
p169
g21
(g73
S'\x04\x00\x00\x00'
tRp170
sa(dp171
g26
g27
sg28
g29
sS'instr_data.thisRepN'
p172
I0
sg126
VAfter this slide you'll begin a practice session in order to familiarize yourself with how to evaluate these arguments. An experimenter will stand by to correct you if you make any mistakes. If you have any questions, please ask the experimenter now.
p173
sg127
Vnothing.jpg
p174
sg20
g24
sS'instr_data.thisTrialN'
p175
I5
sg25
g12
sg18
g19
sS'instr_data.thisN'
p176
I5
sS'instr_data.thisIndex'
p177
g21
(g73
S'\x05\x00\x00\x00'
tRp178
sa(dp179
g26
g27
sS'word_data.thisTrialN'
p180
I0
sg25
g12
sS'word_data.thisRepN'
p181
I0
sS'arguments_data.thisTrialN'
p182
I0
sg20
g24
sg41
g42
sS'arguments_data.thisIndex'
p183
g84
sS'word_data.thisIndex'
p184
g21
(g73
S'\x00\x00\x00\x00'
tRp185
sS'arguments_data.thisN'
p186
I0
sg128
V"words\u005cclear_this.jpg"
p187
sg18
g19
sg28
g29
sS'word_data.thisN'
p188
I0
sS'arguments_data.thisRepN'
p189
I0
sa(dp190
g26
g27
sS'word_data.thisTrialN'
p191
I1
sg25
g12
sS'word_data.thisRepN'
p192
I0
sS'arguments_data.thisTrialN'
p193
I0
sg20
g24
sg41
g42
sS'arguments_data.thisIndex'
p194
g84
sS'word_data.thisIndex'
p195
g21
(g73
S'\x01\x00\x00\x00'
tRp196
sS'arguments_data.thisN'
p197
I0
sg128
V"words\u005cclear_is.jpg"
p198
sg18
g19
sg28
g29
sS'word_data.thisN'
p199
I1
sS'arguments_data.thisRepN'
p200
I0
sa(dp201
g26
g27
sS'word_data.thisTrialN'
p202
I2
sg25
g12
sS'word_data.thisRepN'
p203
I0
sS'arguments_data.thisTrialN'
p204
I0
sg20
g24
sg41
g42
sS'arguments_data.thisIndex'
p205
g84
sS'word_data.thisIndex'
p206
g21
(g73
S'\x02\x00\x00\x00'
tRp207
sS'arguments_data.thisN'
p208
I0
sg128
V"words\u005cclear_the.jpg"
p209
sg18
g19
sg28
g29
sS'word_data.thisN'
p210
I2
sS'arguments_data.thisRepN'
p211
I0
sa(dp212
g26
g27
sS'word_data.thisTrialN'
p213
I3
sg25
g12
sS'word_data.thisRepN'
p214
I0
sS'arguments_data.thisTrialN'
p215
I0
sg20
g24
sg41
g42
sS'arguments_data.thisIndex'
p216
g84
sS'word_data.thisIndex'
p217
g21
(g73
S'\x03\x00\x00\x00'
tRp218
sS'arguments_data.thisN'
p219
I0
sg128
V"words\u005cclear_clear.jpg"
p220
sg18
g19
sg28
g29
sS'word_data.thisN'
p221
I3
sS'arguments_data.thisRepN'
p222
I0
sa(dp223
g26
g27
sS'word_data.thisTrialN'
p224
I4
sg25
g12
sS'word_data.thisRepN'
p225
I0
sS'arguments_data.thisTrialN'
p226
I0
sg20
g24
sg41
g42
sS'arguments_data.thisIndex'
p227
g84
sS'word_data.thisIndex'
p228
g21
(g73
S'\x04\x00\x00\x00'
tRp229
sS'arguments_data.thisN'
p230
I0
sg128
V"words\u005cclear_argument.jpg"
p231
sg18
g19
sg28
g29
sS'word_data.thisN'
p232
I4
sS'arguments_data.thisRepN'
p233
I0
sasS'loops'
p234
(lp235
g1
(g32
g3
NtRp236
(dp237
g35
V<PsychoPy2experiment version="1.80.03" encoding="utf-8">\u000a  <Settings>\u000a    <Param name="Show mouse" val="False" valType="bool" updates="None"/>\u000a    <Param name="Data filename" val="'data/%s_%s_%s' %(expInfo['participant'], expName, expInfo['date'])" valType="code" updates="None"/>\u000a    <Param name="Monitor" val="testMonitor" valType="str" updates="None"/>\u000a    <Param name="Enable Escape" val="True" valType="bool" updates="None"/>\u000a    <Param name="color" val="$[0,0,0]" valType="str" updates="None"/>\u000a    <Param name="Window size (pixels)" val="[1024, 768]" valType="code" updates="None"/>\u000a    <Param name="Full-screen window" val="True" valType="bool" updates="None"/>\u000a    <Param name="colorSpace" val="rgb" valType="str" updates="None"/>\u000a    <Param name="Experiment info" val="{'participant':'', 'session':'001'}" valType="code" updates="None"/>\u000a    <Param name="Save csv file" val="False" valType="bool" updates="None"/>\u000a    <Param name="Show info dlg" val="True" valType="bool" updates="None"/>\u000a    <Param name="Save wide csv file" val="True" valType="bool" updates="None"/>\u000a    <Param name="Save psydat file" val="True" valType="bool" updates="None"/>\u000a    <Param name="expName" val="Arguments" valType="str" updates="None"/>\u000a    <Param name="logging level" val="exp" valType="code" updates="None"/>\u000a    <Param name="blendMode" val="avg" valType="str" updates="None"/>\u000a    <Param name="Save excel file" val="False" valType="bool" updates="None"/>\u000a    <Param name="Units" val="use prefs" valType="str" updates="None"/>\u000a    <Param name="Save log file" val="True" valType="bool" updates="None"/>\u000a    <Param name="Screen" val="1" valType="num" updates="None"/>\u000a  </Settings>\u000a  <Routines>\u000a    <Routine name="code2">\u000a      <CodeComponent name="read_CSV2">\u000a        <Param name="Begin Experiment" val="" valType="extendedCode" updates="constant"/>\u000a        <Param name="name" val="read_CSV2" valType="code" updates="None"/>\u000a        <Param name="Each Frame" val="" valType="extendedCode" updates="constant"/>\u000a        <Param name="Begin Routine" val="words = words.replace('&quot;','')" valType="extendedCode" updates="constant"/>\u000a        <Param name="End Routine" val="" valType="extendedCode" updates="constant"/>\u000a        <Param name="End Experiment" val="" valType="extendedCode" updates="constant"/>\u000a      </CodeComponent>\u000a    </Routine>\u000a    <Routine name="code">\u000a      <CodeComponent name="read_CSV">\u000a        <Param name="Begin Experiment" val="" valType="extendedCode" updates="constant"/>\u000a        <Param name="name" val="read_CSV" valType="code" updates="None"/>\u000a        <Param name="Each Frame" val="" valType="extendedCode" updates="constant"/>\u000a        <Param name="Begin Routine" val="argument = argument.replace('&quot;', '')" valType="extendedCode" updates="constant"/>\u000a        <Param name="End Routine" val="" valType="extendedCode" updates="constant"/>\u000a        <Param name="End Experiment" val="" valType="extendedCode" updates="constant"/>\u000a      </CodeComponent>\u000a    </Routine>\u000a    <Routine name="end">\u000a      <TextComponent name="End">\u000a        <Param name="opacity" val="1" valType="code" updates="constant"/>\u000a        <Param name="colorSpace" val="rgb" valType="str" updates="constant"/>\u000a        <Param name="name" val="End" valType="code" updates="None"/>\u000a        <Param name="wrapWidth" val="35" valType="code" updates="constant"/>\u000a        <Param name="color" val="white" valType="str" updates="constant"/>\u000a        <Param name="text" val="Thanks for participating!&#10;&#10;Please turn around and tell the experimenter that you have finished!" valType="str" updates="constant"/>\u000a        <Param name="stopVal" val="5" valType="code" updates="constant"/>\u000a        <Param name="durationEstim" val="" valType="code" updates="None"/>\u000a        <Param name="pos" val="[0, 0]" valType="code" updates="constant"/>\u000a        <Param name="flip" val="" valType="str" updates="constant"/>\u000a        <Param name="startEstim" val="" valType="code" updates="None"/>\u000a        <Param name="units" val="cm" valType="str" updates="None"/>\u000a        <Param name="startType" val="time (s)" valType="str" updates="None"/>\u000a        <Param name="ori" val="0" valType="code" updates="constant"/>\u000a        <Param name="stopType" val="duration (s)" valType="str" updates="None"/>\u000a        <Param name="startVal" val="0.0" valType="code" updates="None"/>\u000a        <Param name="font" val="Arial" valType="str" updates="constant"/>\u000a        <Param name="letterHeight" val="1" valType="code" updates="constant"/>\u000a      </TextComponent>\u000a    </Routine>\u000a    <Routine name="next_arg">\u000a      <TextComponent name="text_3">\u000a        <Param name="opacity" val="1" valType="code" updates="constant"/>\u000a        <Param name="colorSpace" val="rgb" valType="str" updates="constant"/>\u000a        <Param name="name" val="text_3" valType="code" updates="None"/>\u000a        <Param name="wrapWidth" val="" valType="code" updates="constant"/>\u000a        <Param name="color" val="white" valType="str" updates="constant"/>\u000a        <Param name="text" val="Press SPACE when you are ready to read the next argument." valType="str" updates="constant"/>\u000a        <Param name="stopVal" val="" valType="code" updates="constant"/>\u000a        <Param name="durationEstim" val="" valType="code" updates="None"/>\u000a        <Param name="pos" val="[0, 0]" valType="code" updates="constant"/>\u000a        <Param name="flip" val="" valType="str" updates="constant"/>\u000a        <Param name="startEstim" val="" valType="code" updates="None"/>\u000a        <Param name="units" val="from exp settings" valType="str" updates="None"/>\u000a        <Param name="startType" val="time (s)" valType="str" updates="None"/>\u000a        <Param name="ori" val="0" valType="code" updates="constant"/>\u000a        <Param name="stopType" val="duration (s)" valType="str" updates="None"/>\u000a        <Param name="startVal" val="0.5" valType="code" updates="None"/>\u000a        <Param name="font" val="Arial" valType="str" updates="constant"/>\u000a        <Param name="letterHeight" val="0.1" valType="code" updates="constant"/>\u000a      </TextComponent>\u000a      <KeyboardComponent name="Next_Argument">\u000a        <Param name="correctAns" val="" valType="str" updates="constant"/>\u000a        <Param name="storeCorrect" val="False" valType="bool" updates="constant"/>\u000a        <Param name="name" val="Next_Argument" valType="code" updates="None"/>\u000a        <Param name="stopVal" val="" valType="code" updates="constant"/>\u000a        <Param name="durationEstim" val="" valType="code" updates="None"/>\u000a        <Param name="forceEndRoutine" val="True" valType="bool" updates="constant"/>\u000a        <Param name="startEstim" val="" valType="code" updates="None"/>\u000a        <Param name="discard previous" val="True" valType="bool" updates="constant"/>\u000a        <Param name="startType" val="time (s)" valType="str" updates="None"/>\u000a        <Param name="allowedKeys" val="'space'" valType="code" updates="constant"/>\u000a        <Param name="stopType" val="duration (s)" valType="str" updates="None"/>\u000a        <Param name="startVal" val="0.5" valType="code" updates="None"/>\u000a        <Param name="store" val="nothing" valType="str" updates="constant"/>\u000a      </KeyboardComponent>\u000a    </Routine>\u000a    <Routine name="question">\u000a      <TextComponent name="question_text">\u000a        <Param name="opacity" val="1" valType="code" updates="constant"/>\u000a        <Param name="colorSpace" val="rgb" valType="str" updates="constant"/>\u000a        <Param name="name" val="question_text" valType="code" updates="None"/>\u000a        <Param name="wrapWidth" val="35" valType="code" updates="constant"/>\u000a        <Param name="color" val="white" valType="str" updates="constant"/>\u000a        <Param name="text" val="$question" valType="str" updates="set every repeat"/>\u000a        <Param name="stopVal" val="" valType="code" updates="constant"/>\u000a        <Param name="durationEstim" val="" valType="code" updates="None"/>\u000a        <Param name="pos" val="[0, 0]" valType="code" updates="constant"/>\u000a        <Param name="flip" val="" valType="str" updates="constant"/>\u000a        <Param name="startEstim" val="" valType="code" updates="None"/>\u000a        <Param name="units" val="cm" valType="str" updates="None"/>\u000a        <Param name="startType" val="time (s)" valType="str" updates="None"/>\u000a        <Param name="ori" val="0" valType="code" updates="constant"/>\u000a        <Param name="stopType" val="duration (s)" valType="str" updates="None"/>\u000a        <Param name="startVal" val="0.5" valType="code" updates="None"/>\u000a        <Param name="font" val="Arial" valType="str" updates="constant"/>\u000a        <Param name="letterHeight" val="1" valType="code" updates="constant"/>\u000a      </TextComponent>\u000a      <KeyboardComponent name="rating">\u000a        <Param name="correctAns" val="" valType="str" updates="constant"/>\u000a        <Param name="storeCorrect" val="False" valType="bool" updates="constant"/>\u000a        <Param name="name" val="rating" valType="code" updates="None"/>\u000a        <Param name="stopVal" val="" valType="code" updates="constant"/>\u000a        <Param name="durationEstim" val="" valType="code" updates="None"/>\u000a        <Param name="forceEndRoutine" val="True" valType="bool" updates="constant"/>\u000a        <Param name="startEstim" val="" valType="code" updates="None"/>\u000a        <Param name="discard previous" val="True" valType="bool" updates="constant"/>\u000a        <Param name="startType" val="time (s)" valType="str" updates="None"/>\u000a        <Param name="allowedKeys" val="'1','2','3','4','5','6','7','8','9'" valType="code" updates="constant"/>\u000a        <Param name="stopType" val="duration (s)" valType="str" updates="None"/>\u000a        <Param name="startVal" val="0.5" valType="code" updates="None"/>\u000a        <Param name="store" val="last key" valType="str" updates="constant"/>\u000a      </KeyboardComponent>\u000a    </Routine>\u000a    <Routine name="argument">\u000a      <ImageComponent name="text_image">\u000a        <Param name="opacity" val="1" valType="code" updates="constant"/>\u000a        <Param name="flipVert" val="False" valType="bool" updates="constant"/>\u000a        <Param name="colorSpace" val="rgb" valType="str" updates="constant"/>\u000a        <Param name="name" val="text_image" valType="code" updates="constant"/>\u000a        <Param name="color" val="$[1,1,1]" valType="str" updates="constant"/>\u000a        <Param name="stopVal" val="1.0" valType="code" updates="constant"/>\u000a        <Param name="durationEstim" val="" valType="code" updates="None"/>\u000a        <Param name="mask" val="None" valType="str" updates="constant"/>\u000a        <Param name="pos" val="[0, 0]" valType="code" updates="constant"/>\u000a        <Param name="interpolate" val="" valType="str" updates="constant"/>\u000a        <Param name="startEstim" val="" valType="code" updates="None"/>\u000a        <Param name="units" val="from exp settings" valType="str" updates="None"/>\u000a        <Param name="texture resolution" val="128" valType="code" updates="constant"/>\u000a        <Param name="startType" val="time (s)" valType="str" updates="None"/>\u000a        <Param name="ori" val="0" valType="code" updates="constant"/>\u000a        <Param name="stopType" val="duration (s)" valType="str" updates="None"/>\u000a        <Param name="startVal" val="0.0" valType="code" updates="None"/>\u000a        <Param name="flipHoriz" val="False" valType="bool" updates="constant"/>\u000a        <Param name="image" val="$words" valType="str" updates="set every repeat"/>\u000a        <Param name="size" val="[1, 1]" valType="code" updates="constant"/>\u000a      </ImageComponent>\u000a    </Routine>\u000a    <Routine name="next_ques"/>\u000a    <Routine name="pause">\u000a      <TextComponent name="text_2">\u000a        <Param name="opacity" val="1" valType="code" updates="constant"/>\u000a        <Param name="colorSpace" val="rgb" valType="str" updates="constant"/>\u000a        <Param name="name" val="text_2" valType="code" updates="None"/>\u000a        <Param name="wrapWidth" val="" valType="code" updates="constant"/>\u000a        <Param name="color" val="white" valType="str" updates="constant"/>\u000a        <Param name="text" val="" valType="str" updates="constant"/>\u000a        <Param name="stopVal" val="1.5" valType="code" updates="constant"/>\u000a        <Param name="durationEstim" val="" valType="code" updates="None"/>\u000a        <Param name="pos" val="[0, 0]" valType="code" updates="constant"/>\u000a        <Param name="flip" val="" valType="str" updates="constant"/>\u000a        <Param name="startEstim" val="" valType="code" updates="None"/>\u000a        <Param name="units" val="from exp settings" valType="str" updates="None"/>\u000a        <Param name="startType" val="time (s)" valType="str" updates="None"/>\u000a        <Param name="ori" val="0" valType="code" updates="constant"/>\u000a        <Param name="stopType" val="duration (s)" valType="str" updates="None"/>\u000a        <Param name="startVal" val="0.0" valType="code" updates="None"/>\u000a        <Param name="font" val="Arial" valType="str" updates="constant"/>\u000a        <Param name="letterHeight" val="0.1" valType="code" updates="constant"/>\u000a      </TextComponent>\u000a    </Routine>\u000a    <Routine name="instructions">\u000a      <TextComponent name="Instructions">\u000a        <Param name="opacity" val="1" valType="code" updates="constant"/>\u000a        <Param name="colorSpace" val="rgb" valType="str" updates="constant"/>\u000a        <Param name="name" val="Instructions" valType="code" updates="None"/>\u000a        <Param name="wrapWidth" val="35" valType="code" updates="constant"/>\u000a        <Param name="color" val="white" valType="str" updates="constant"/>\u000a        <Param name="text" val="$text" valType="str" updates="set every repeat"/>\u000a        <Param name="stopVal" val="" valType="code" updates="constant"/>\u000a        <Param name="durationEstim" val="" valType="code" updates="None"/>\u000a        <Param name="pos" val="[0, 5]" valType="code" updates="constant"/>\u000a        <Param name="flip" val="" valType="str" updates="constant"/>\u000a        <Param name="startEstim" val="" valType="code" updates="None"/>\u000a        <Param name="units" val="cm" valType="str" updates="None"/>\u000a        <Param name="startType" val="time (s)" valType="str" updates="None"/>\u000a        <Param name="ori" val="0" valType="code" updates="constant"/>\u000a        <Param name="stopType" val="duration (s)" valType="str" updates="None"/>\u000a        <Param name="startVal" val="0.0" valType="code" updates="None"/>\u000a        <Param name="font" val="Arial" valType="str" updates="constant"/>\u000a        <Param name="letterHeight" val="1" valType="code" updates="constant"/>\u000a      </TextComponent>\u000a      <KeyboardComponent name="Next_Instr">\u000a        <Param name="correctAns" val="" valType="str" updates="constant"/>\u000a        <Param name="storeCorrect" val="False" valType="bool" updates="constant"/>\u000a        <Param name="name" val="Next_Instr" valType="code" updates="None"/>\u000a        <Param name="stopVal" val="" valType="code" updates="constant"/>\u000a        <Param name="durationEstim" val="" valType="code" updates="None"/>\u000a        <Param name="forceEndRoutine" val="True" valType="bool" updates="constant"/>\u000a        <Param name="startEstim" val="" valType="code" updates="None"/>\u000a        <Param name="discard previous" val="True" valType="bool" updates="constant"/>\u000a        <Param name="startType" val="time (s)" valType="str" updates="None"/>\u000a        <Param name="allowedKeys" val="'space'" valType="code" updates="constant"/>\u000a        <Param name="stopType" val="duration (s)" valType="str" updates="None"/>\u000a        <Param name="startVal" val="0.0" valType="code" updates="None"/>\u000a        <Param name="store" val="nothing" valType="str" updates="constant"/>\u000a      </KeyboardComponent>\u000a      <TextComponent name="Space_Continue">\u000a        <Param name="opacity" val="1" valType="code" updates="constant"/>\u000a        <Param name="colorSpace" val="rgb" valType="str" updates="constant"/>\u000a        <Param name="name" val="Space_Continue" valType="code" updates="None"/>\u000a        <Param name="wrapWidth" val="35" valType="code" updates="constant"/>\u000a        <Param name="color" val="white" valType="str" updates="constant"/>\u000a        <Param name="text" val="Press SPACE to continue" valType="str" updates="constant"/>\u000a        <Param name="stopVal" val="" valType="code" updates="constant"/>\u000a        <Param name="durationEstim" val="" valType="code" updates="None"/>\u000a        <Param name="pos" val="[0, -7]" valType="code" updates="constant"/>\u000a        <Param name="flip" val="" valType="str" updates="constant"/>\u000a        <Param name="startEstim" val="" valType="code" updates="None"/>\u000a        <Param name="units" val="cm" valType="str" updates="None"/>\u000a        <Param name="startType" val="time (s)" valType="str" updates="None"/>\u000a        <Param name="ori" val="0" valType="code" updates="constant"/>\u000a        <Param name="stopType" val="duration (s)" valType="str" updates="None"/>\u000a        <Param name="startVal" val="0.0" valType="code" updates="None"/>\u000a        <Param name="font" val="Arial" valType="str" updates="constant"/>\u000a        <Param name="letterHeight" val="1" valType="code" updates="constant"/>\u000a      </TextComponent>\u000a      <ImageComponent name="Instr_Pic">\u000a        <Param name="opacity" val="1" valType="code" updates="constant"/>\u000a        <Param name="flipVert" val="False" valType="bool" updates="constant"/>\u000a        <Param name="colorSpace" val="rgb" valType="str" updates="constant"/>\u000a        <Param name="name" val="Instr_Pic" valType="code" updates="constant"/>\u000a        <Param name="color" val="$[1,1,1]" valType="str" updates="constant"/>\u000a        <Param name="stopVal" val="" valType="code" updates="constant"/>\u000a        <Param name="durationEstim" val="" valType="code" updates="None"/>\u000a        <Param name="mask" val="None" valType="str" updates="constant"/>\u000a        <Param name="pos" val="[0, 0]" valType="code" updates="constant"/>\u000a        <Param name="interpolate" val="" valType="str" updates="constant"/>\u000a        <Param name="startEstim" val="" valType="code" updates="None"/>\u000a        <Param name="units" val="cm" valType="str" updates="None"/>\u000a        <Param name="texture resolution" val="128" valType="code" updates="constant"/>\u000a        <Param name="startType" val="time (s)" valType="str" updates="None"/>\u000a        <Param name="ori" val="0" valType="code" updates="constant"/>\u000a        <Param name="stopType" val="duration (s)" valType="str" updates="None"/>\u000a        <Param name="startVal" val="0.0" valType="code" updates="None"/>\u000a        <Param name="flipHoriz" val="False" valType="bool" updates="constant"/>\u000a        <Param name="image" val="$image" valType="str" updates="set every repeat"/>\u000a        <Param name="size" val="[1, 1]" valType="code" updates="constant"/>\u000a      </ImageComponent>\u000a    </Routine>\u000a  </Routines>\u000a  <Flow>\u000a    <LoopInitiator loopType="TrialHandler" name="instr_data">\u000a      <Param name="conditionsFile" val="instructions.xlsx" valType="str" updates="None"/>\u000a      <Param name="name" val="instr_data" valType="code" updates="None"/>\u000a      <Param name="random seed" val="" valType="code" updates="None"/>\u000a      <Param name="loopType" val="sequential" valType="str" updates="None"/>\u000a      <Param name="nReps" val="1" valType="code" updates="None"/>\u000a      <Param name="endPoints" val="[0, 1]" valType="num" updates="None"/>\u000a      <Param name="conditions" val="[{u'text': u'We are piloting a new method for group-grading exam questions. In this first section you will be reading aloud several arguments taken from LAW 204, Written and Oral Advocacy, taught at the UC Berkeley Law School.', u'image': u'nothing.jpg'}, {u'text': u'You will read through student responses taken from the essay portion of the midterm exam. In order to give an objective analysis, you will be asked to read the essay responses aloud. In addition, sentences from each essay response will be presented phrase-by-phrase, not all at once.', u'image': u'nothing.jpg'}, {u'text': u'Handwriting has been cropped and digitized into snippets like the one below, each of which contain individual phrases:', u'image': u'words\u005c\u005cexample.jpg'}, {u'text': u'These snippets of text will appear on the screen for only one second each. When each phrase appears please read it out loud.', u'image': u'nothing.jpg'}, {u'text': u'After you have read through each argument, you will be asked several questions about the complete argument. Please try to answer these questions as objectively as possible, as if you were a teaching assistant grading this exam.', u'image': u'nothing.jpg'}, {u'text': u&quot;After this slide you'll begin a practice session in order to familiarize yourself with how to evaluate these arguments. An experimenter will stand by to correct you if you make any mistakes. If you have any questions, please ask the experimenter now.&quot;, u'image': u'nothing.jpg'}]" valType="str" updates="None"/>\u000a    </LoopInitiator>\u000a    <Routine name="instructions"/>\u000a    <LoopTerminator name="instr_data"/>\u000a    <Routine name="pause"/>\u000a    <LoopInitiator loopType="TrialHandler" name="arguments_data">\u000a      <Param name="conditionsFile" val="arguments.csv" valType="str" updates="None"/>\u000a      <Param name="name" val="arguments_data" valType="code" updates="None"/>\u000a      <Param name="random seed" val="" valType="code" updates="None"/>\u000a      <Param name="loopType" val="random" valType="str" updates="None"/>\u000a      <Param name="nReps" val="1" valType="code" updates="None"/>\u000a      <Param name="endPoints" val="[0, 1]" valType="num" updates="None"/>\u000a      <Param name="conditions" val="[{'argument': u'clear_01.csv'}, {'argument': u'messy_01.csv'}]" valType="str" updates="None"/>\u000a    </LoopInitiator>\u000a    <Routine name="code"/>\u000a    <LoopInitiator loopType="TrialHandler" name="word_data">\u000a      <Param name="conditionsFile" val="$argument" valType="str" updates="None"/>\u000a      <Param name="name" val="word_data" valType="code" updates="None"/>\u000a      <Param name="random seed" val="" valType="code" updates="None"/>\u000a      <Param name="loopType" val="sequential" valType="str" updates="None"/>\u000a      <Param name="nReps" val="1" valType="code" updates="None"/>\u000a      <Param name="endPoints" val="[0, 1]" valType="num" updates="None"/>\u000a      <Param name="conditions" val="None" valType="str" updates="None"/>\u000a    </LoopInitiator>\u000a    <Routine name="code2"/>\u000a    <Routine name="argument"/>\u000a    <LoopTerminator name="word_data"/>\u000a    <LoopInitiator loopType="TrialHandler" name="questions">\u000a      <Param name="conditionsFile" val="questions.csv" valType="str" updates="None"/>\u000a      <Param name="name" val="questions" valType="code" updates="None"/>\u000a      <Param name="random seed" val="" valType="code" updates="None"/>\u000a      <Param name="loopType" val="random" valType="str" updates="None"/>\u000a      <Param name="nReps" val="1" valType="code" updates="None"/>\u000a      <Param name="endPoints" val="[0, 1]" valType="num" updates="None"/>\u000a      <Param name="conditions" val="None" valType="str" updates="None"/>\u000a    </LoopInitiator>\u000a    <Routine name="question"/>\u000a    <LoopTerminator name="questions"/>\u000a    <Routine name="next_arg"/>\u000a    <LoopTerminator name="arguments_data"/>\u000a    <Routine name="end"/>\u000a  </Flow>\u000a</PsychoPy2experiment>\u000a
p238
sg37
(lp239
sg44
I60508848
sg11
S'instr_data'
p240
sg6
g7
sg46
I1
sg15
I01
sg16
g17
sg47
g1
(g48
g39
(dp241
g50
g51
(g52
g53
g54
S'b'
tRp242
(I1
(I6
I1
tg56
I00
S'\x00\x00\x80?\x00\x00\x80?\x00\x00\x80?\x00\x00\x80?\x00\x00\x80?\x00\x00\x80?'
S'\x00\x00\x00\x00\x00\x00'
Ntbsg57
g51
(g52
g53
g54
S'b'
tRp243
(I1
(I6
I1
tg56
I00
S'\x00\x00\x00\x00\x00\x00\x80?\x00\x00\x00@\x00\x00@@\x00\x00\x80@\x00\x00\xa0@'
S'\x00\x00\x00\x00\x00\x00'
NtbstRp244
(dp245
g61
(dp246
g50
I01
sg57
I01
ssg63
g236
sg64
(lp247
g50
ag57
asg66
(lp248
I6
aI1
asbsg68
Vsequential
p249
sg70
g71
(g53
(I0
tS'b'
tRp250
(I1
(I6
I1
tg73
I00
S'\x00\x00\x00\x00\x01\x00\x00\x00\x02\x00\x00\x00\x03\x00\x00\x00\x04\x00\x00\x00\x05\x00\x00\x00'
tbsg74
I01
sg75
I1
sg76
I-1
sg77
(lp251
g1
(g38
g39
(dp252
g126
g133
sg127
g134
stRp253
ag1
(g38
g39
(dp254
g126
g141
sg127
g142
stRp255
ag1
(g38
g39
(dp256
g126
g149
sg127
g150
stRp257
ag1
(g38
g39
(dp258
g126
g157
sg127
g158
stRp259
ag1
(g38
g39
(dp260
g126
g165
sg127
g166
stRp261
ag1
(g38
g39
(dp262
g126
g173
sg127
g174
stRp263
asg82
Nsg83
g178
sg85
I6
sg86
I0
sg87
I6
sg88
I01
sbag33
ag1
(g32
g3
NtRp264
(dp265
g35
V<PsychoPy2experiment version="1.80.03" encoding="utf-8">\u000a  <Settings>\u000a    <Param name="Show mouse" val="False" valType="bool" updates="None"/>\u000a    <Param name="Data filename" val="'data/%s_%s_%s' %(expInfo['participant'], expName, expInfo['date'])" valType="code" updates="None"/>\u000a    <Param name="Monitor" val="testMonitor" valType="str" updates="None"/>\u000a    <Param name="Enable Escape" val="True" valType="bool" updates="None"/>\u000a    <Param name="color" val="$[0,0,0]" valType="str" updates="None"/>\u000a    <Param name="Window size (pixels)" val="[1024, 768]" valType="code" updates="None"/>\u000a    <Param name="Full-screen window" val="True" valType="bool" updates="None"/>\u000a    <Param name="colorSpace" val="rgb" valType="str" updates="None"/>\u000a    <Param name="Experiment info" val="{'participant':'', 'session':'001'}" valType="code" updates="None"/>\u000a    <Param name="Save csv file" val="False" valType="bool" updates="None"/>\u000a    <Param name="Show info dlg" val="True" valType="bool" updates="None"/>\u000a    <Param name="Save wide csv file" val="True" valType="bool" updates="None"/>\u000a    <Param name="Save psydat file" val="True" valType="bool" updates="None"/>\u000a    <Param name="expName" val="Arguments" valType="str" updates="None"/>\u000a    <Param name="logging level" val="exp" valType="code" updates="None"/>\u000a    <Param name="blendMode" val="avg" valType="str" updates="None"/>\u000a    <Param name="Save excel file" val="False" valType="bool" updates="None"/>\u000a    <Param name="Units" val="use prefs" valType="str" updates="None"/>\u000a    <Param name="Save log file" val="True" valType="bool" updates="None"/>\u000a    <Param name="Screen" val="1" valType="num" updates="None"/>\u000a  </Settings>\u000a  <Routines>\u000a    <Routine name="code2">\u000a      <CodeComponent name="read_CSV2">\u000a        <Param name="Begin Experiment" val="" valType="extendedCode" updates="constant"/>\u000a        <Param name="name" val="read_CSV2" valType="code" updates="None"/>\u000a        <Param name="Each Frame" val="" valType="extendedCode" updates="constant"/>\u000a        <Param name="Begin Routine" val="words = words.replace('&quot;','')" valType="extendedCode" updates="constant"/>\u000a        <Param name="End Routine" val="" valType="extendedCode" updates="constant"/>\u000a        <Param name="End Experiment" val="" valType="extendedCode" updates="constant"/>\u000a      </CodeComponent>\u000a    </Routine>\u000a    <Routine name="code">\u000a      <CodeComponent name="read_CSV">\u000a        <Param name="Begin Experiment" val="" valType="extendedCode" updates="constant"/>\u000a        <Param name="name" val="read_CSV" valType="code" updates="None"/>\u000a        <Param name="Each Frame" val="" valType="extendedCode" updates="constant"/>\u000a        <Param name="Begin Routine" val="argument = argument.replace('&quot;', '')" valType="extendedCode" updates="constant"/>\u000a        <Param name="End Routine" val="" valType="extendedCode" updates="constant"/>\u000a        <Param name="End Experiment" val="" valType="extendedCode" updates="constant"/>\u000a      </CodeComponent>\u000a    </Routine>\u000a    <Routine name="end">\u000a      <TextComponent name="End">\u000a        <Param name="opacity" val="1" valType="code" updates="constant"/>\u000a        <Param name="colorSpace" val="rgb" valType="str" updates="constant"/>\u000a        <Param name="name" val="End" valType="code" updates="None"/>\u000a        <Param name="wrapWidth" val="35" valType="code" updates="constant"/>\u000a        <Param name="color" val="white" valType="str" updates="constant"/>\u000a        <Param name="text" val="Thanks for participating!&#10;&#10;Please turn around and tell the experimenter that you have finished!" valType="str" updates="constant"/>\u000a        <Param name="stopVal" val="5" valType="code" updates="constant"/>\u000a        <Param name="durationEstim" val="" valType="code" updates="None"/>\u000a        <Param name="pos" val="[0, 0]" valType="code" updates="constant"/>\u000a        <Param name="flip" val="" valType="str" updates="constant"/>\u000a        <Param name="startEstim" val="" valType="code" updates="None"/>\u000a        <Param name="units" val="cm" valType="str" updates="None"/>\u000a        <Param name="startType" val="time (s)" valType="str" updates="None"/>\u000a        <Param name="ori" val="0" valType="code" updates="constant"/>\u000a        <Param name="stopType" val="duration (s)" valType="str" updates="None"/>\u000a        <Param name="startVal" val="0.0" valType="code" updates="None"/>\u000a        <Param name="font" val="Arial" valType="str" updates="constant"/>\u000a        <Param name="letterHeight" val="1" valType="code" updates="constant"/>\u000a      </TextComponent>\u000a    </Routine>\u000a    <Routine name="next_arg">\u000a      <TextComponent name="text_3">\u000a        <Param name="opacity" val="1" valType="code" updates="constant"/>\u000a        <Param name="colorSpace" val="rgb" valType="str" updates="constant"/>\u000a        <Param name="name" val="text_3" valType="code" updates="None"/>\u000a        <Param name="wrapWidth" val="" valType="code" updates="constant"/>\u000a        <Param name="color" val="white" valType="str" updates="constant"/>\u000a        <Param name="text" val="Press SPACE when you are ready to read the next argument." valType="str" updates="constant"/>\u000a        <Param name="stopVal" val="" valType="code" updates="constant"/>\u000a        <Param name="durationEstim" val="" valType="code" updates="None"/>\u000a        <Param name="pos" val="[0, 0]" valType="code" updates="constant"/>\u000a        <Param name="flip" val="" valType="str" updates="constant"/>\u000a        <Param name="startEstim" val="" valType="code" updates="None"/>\u000a        <Param name="units" val="from exp settings" valType="str" updates="None"/>\u000a        <Param name="startType" val="time (s)" valType="str" updates="None"/>\u000a        <Param name="ori" val="0" valType="code" updates="constant"/>\u000a        <Param name="stopType" val="duration (s)" valType="str" updates="None"/>\u000a        <Param name="startVal" val="0.5" valType="code" updates="None"/>\u000a        <Param name="font" val="Arial" valType="str" updates="constant"/>\u000a        <Param name="letterHeight" val="0.1" valType="code" updates="constant"/>\u000a      </TextComponent>\u000a      <KeyboardComponent name="Next_Argument">\u000a        <Param name="correctAns" val="" valType="str" updates="constant"/>\u000a        <Param name="storeCorrect" val="False" valType="bool" updates="constant"/>\u000a        <Param name="name" val="Next_Argument" valType="code" updates="None"/>\u000a        <Param name="stopVal" val="" valType="code" updates="constant"/>\u000a        <Param name="durationEstim" val="" valType="code" updates="None"/>\u000a        <Param name="forceEndRoutine" val="True" valType="bool" updates="constant"/>\u000a        <Param name="startEstim" val="" valType="code" updates="None"/>\u000a        <Param name="discard previous" val="True" valType="bool" updates="constant"/>\u000a        <Param name="startType" val="time (s)" valType="str" updates="None"/>\u000a        <Param name="allowedKeys" val="'space'" valType="code" updates="constant"/>\u000a        <Param name="stopType" val="duration (s)" valType="str" updates="None"/>\u000a        <Param name="startVal" val="0.5" valType="code" updates="None"/>\u000a        <Param name="store" val="nothing" valType="str" updates="constant"/>\u000a      </KeyboardComponent>\u000a    </Routine>\u000a    <Routine name="question">\u000a      <TextComponent name="question_text">\u000a        <Param name="opacity" val="1" valType="code" updates="constant"/>\u000a        <Param name="colorSpace" val="rgb" valType="str" updates="constant"/>\u000a        <Param name="name" val="question_text" valType="code" updates="None"/>\u000a        <Param name="wrapWidth" val="35" valType="code" updates="constant"/>\u000a        <Param name="color" val="white" valType="str" updates="constant"/>\u000a        <Param name="text" val="$question" valType="str" updates="set every repeat"/>\u000a        <Param name="stopVal" val="" valType="code" updates="constant"/>\u000a        <Param name="durationEstim" val="" valType="code" updates="None"/>\u000a        <Param name="pos" val="[0, 0]" valType="code" updates="constant"/>\u000a        <Param name="flip" val="" valType="str" updates="constant"/>\u000a        <Param name="startEstim" val="" valType="code" updates="None"/>\u000a        <Param name="units" val="cm" valType="str" updates="None"/>\u000a        <Param name="startType" val="time (s)" valType="str" updates="None"/>\u000a        <Param name="ori" val="0" valType="code" updates="constant"/>\u000a        <Param name="stopType" val="duration (s)" valType="str" updates="None"/>\u000a        <Param name="startVal" val="0.5" valType="code" updates="None"/>\u000a        <Param name="font" val="Arial" valType="str" updates="constant"/>\u000a        <Param name="letterHeight" val="1" valType="code" updates="constant"/>\u000a      </TextComponent>\u000a      <KeyboardComponent name="rating">\u000a        <Param name="correctAns" val="" valType="str" updates="constant"/>\u000a        <Param name="storeCorrect" val="False" valType="bool" updates="constant"/>\u000a        <Param name="name" val="rating" valType="code" updates="None"/>\u000a        <Param name="stopVal" val="" valType="code" updates="constant"/>\u000a        <Param name="durationEstim" val="" valType="code" updates="None"/>\u000a        <Param name="forceEndRoutine" val="True" valType="bool" updates="constant"/>\u000a        <Param name="startEstim" val="" valType="code" updates="None"/>\u000a        <Param name="discard previous" val="True" valType="bool" updates="constant"/>\u000a        <Param name="startType" val="time (s)" valType="str" updates="None"/>\u000a        <Param name="allowedKeys" val="'1','2','3','4','5','6','7','8','9'" valType="code" updates="constant"/>\u000a        <Param name="stopType" val="duration (s)" valType="str" updates="None"/>\u000a        <Param name="startVal" val="0.5" valType="code" updates="None"/>\u000a        <Param name="store" val="last key" valType="str" updates="constant"/>\u000a      </KeyboardComponent>\u000a    </Routine>\u000a    <Routine name="argument">\u000a      <ImageComponent name="text_image">\u000a        <Param name="opacity" val="1" valType="code" updates="constant"/>\u000a        <Param name="flipVert" val="False" valType="bool" updates="constant"/>\u000a        <Param name="colorSpace" val="rgb" valType="str" updates="constant"/>\u000a        <Param name="name" val="text_image" valType="code" updates="constant"/>\u000a        <Param name="color" val="$[1,1,1]" valType="str" updates="constant"/>\u000a        <Param name="stopVal" val="1.0" valType="code" updates="constant"/>\u000a        <Param name="durationEstim" val="" valType="code" updates="None"/>\u000a        <Param name="mask" val="None" valType="str" updates="constant"/>\u000a        <Param name="pos" val="[0, 0]" valType="code" updates="constant"/>\u000a        <Param name="interpolate" val="" valType="str" updates="constant"/>\u000a        <Param name="startEstim" val="" valType="code" updates="None"/>\u000a        <Param name="units" val="from exp settings" valType="str" updates="None"/>\u000a        <Param name="texture resolution" val="128" valType="code" updates="constant"/>\u000a        <Param name="startType" val="time (s)" valType="str" updates="None"/>\u000a        <Param name="ori" val="0" valType="code" updates="constant"/>\u000a        <Param name="stopType" val="duration (s)" valType="str" updates="None"/>\u000a        <Param name="startVal" val="0.0" valType="code" updates="None"/>\u000a        <Param name="flipHoriz" val="False" valType="bool" updates="constant"/>\u000a        <Param name="image" val="$words" valType="str" updates="set every repeat"/>\u000a        <Param name="size" val="[1, 1]" valType="code" updates="constant"/>\u000a      </ImageComponent>\u000a    </Routine>\u000a    <Routine name="next_ques"/>\u000a    <Routine name="pause">\u000a      <TextComponent name="text_2">\u000a        <Param name="opacity" val="1" valType="code" updates="constant"/>\u000a        <Param name="colorSpace" val="rgb" valType="str" updates="constant"/>\u000a        <Param name="name" val="text_2" valType="code" updates="None"/>\u000a        <Param name="wrapWidth" val="" valType="code" updates="constant"/>\u000a        <Param name="color" val="white" valType="str" updates="constant"/>\u000a        <Param name="text" val="" valType="str" updates="constant"/>\u000a        <Param name="stopVal" val="1.5" valType="code" updates="constant"/>\u000a        <Param name="durationEstim" val="" valType="code" updates="None"/>\u000a        <Param name="pos" val="[0, 0]" valType="code" updates="constant"/>\u000a        <Param name="flip" val="" valType="str" updates="constant"/>\u000a        <Param name="startEstim" val="" valType="code" updates="None"/>\u000a        <Param name="units" val="from exp settings" valType="str" updates="None"/>\u000a        <Param name="startType" val="time (s)" valType="str" updates="None"/>\u000a        <Param name="ori" val="0" valType="code" updates="constant"/>\u000a        <Param name="stopType" val="duration (s)" valType="str" updates="None"/>\u000a        <Param name="startVal" val="0.0" valType="code" updates="None"/>\u000a        <Param name="font" val="Arial" valType="str" updates="constant"/>\u000a        <Param name="letterHeight" val="0.1" valType="code" updates="constant"/>\u000a      </TextComponent>\u000a    </Routine>\u000a    <Routine name="instructions">\u000a      <TextComponent name="Instructions">\u000a        <Param name="opacity" val="1" valType="code" updates="constant"/>\u000a        <Param name="colorSpace" val="rgb" valType="str" updates="constant"/>\u000a        <Param name="name" val="Instructions" valType="code" updates="None"/>\u000a        <Param name="wrapWidth" val="35" valType="code" updates="constant"/>\u000a        <Param name="color" val="white" valType="str" updates="constant"/>\u000a        <Param name="text" val="$text" valType="str" updates="set every repeat"/>\u000a        <Param name="stopVal" val="" valType="code" updates="constant"/>\u000a        <Param name="durationEstim" val="" valType="code" updates="None"/>\u000a        <Param name="pos" val="[0, 5]" valType="code" updates="constant"/>\u000a        <Param name="flip" val="" valType="str" updates="constant"/>\u000a        <Param name="startEstim" val="" valType="code" updates="None"/>\u000a        <Param name="units" val="cm" valType="str" updates="None"/>\u000a        <Param name="startType" val="time (s)" valType="str" updates="None"/>\u000a        <Param name="ori" val="0" valType="code" updates="constant"/>\u000a        <Param name="stopType" val="duration (s)" valType="str" updates="None"/>\u000a        <Param name="startVal" val="0.0" valType="code" updates="None"/>\u000a        <Param name="font" val="Arial" valType="str" updates="constant"/>\u000a        <Param name="letterHeight" val="1" valType="code" updates="constant"/>\u000a      </TextComponent>\u000a      <KeyboardComponent name="Next_Instr">\u000a        <Param name="correctAns" val="" valType="str" updates="constant"/>\u000a        <Param name="storeCorrect" val="False" valType="bool" updates="constant"/>\u000a        <Param name="name" val="Next_Instr" valType="code" updates="None"/>\u000a        <Param name="stopVal" val="" valType="code" updates="constant"/>\u000a        <Param name="durationEstim" val="" valType="code" updates="None"/>\u000a        <Param name="forceEndRoutine" val="True" valType="bool" updates="constant"/>\u000a        <Param name="startEstim" val="" valType="code" updates="None"/>\u000a        <Param name="discard previous" val="True" valType="bool" updates="constant"/>\u000a        <Param name="startType" val="time (s)" valType="str" updates="None"/>\u000a        <Param name="allowedKeys" val="'space'" valType="code" updates="constant"/>\u000a        <Param name="stopType" val="duration (s)" valType="str" updates="None"/>\u000a        <Param name="startVal" val="0.0" valType="code" updates="None"/>\u000a        <Param name="store" val="nothing" valType="str" updates="constant"/>\u000a      </KeyboardComponent>\u000a      <TextComponent name="Space_Continue">\u000a        <Param name="opacity" val="1" valType="code" updates="constant"/>\u000a        <Param name="colorSpace" val="rgb" valType="str" updates="constant"/>\u000a        <Param name="name" val="Space_Continue" valType="code" updates="None"/>\u000a        <Param name="wrapWidth" val="35" valType="code" updates="constant"/>\u000a        <Param name="color" val="white" valType="str" updates="constant"/>\u000a        <Param name="text" val="Press SPACE to continue" valType="str" updates="constant"/>\u000a        <Param name="stopVal" val="" valType="code" updates="constant"/>\u000a        <Param name="durationEstim" val="" valType="code" updates="None"/>\u000a        <Param name="pos" val="[0, -7]" valType="code" updates="constant"/>\u000a        <Param name="flip" val="" valType="str" updates="constant"/>\u000a        <Param name="startEstim" val="" valType="code" updates="None"/>\u000a        <Param name="units" val="cm" valType="str" updates="None"/>\u000a        <Param name="startType" val="time (s)" valType="str" updates="None"/>\u000a        <Param name="ori" val="0" valType="code" updates="constant"/>\u000a        <Param name="stopType" val="duration (s)" valType="str" updates="None"/>\u000a        <Param name="startVal" val="0.0" valType="code" updates="None"/>\u000a        <Param name="font" val="Arial" valType="str" updates="constant"/>\u000a        <Param name="letterHeight" val="1" valType="code" updates="constant"/>\u000a      </TextComponent>\u000a      <ImageComponent name="Instr_Pic">\u000a        <Param name="opacity" val="1" valType="code" updates="constant"/>\u000a        <Param name="flipVert" val="False" valType="bool" updates="constant"/>\u000a        <Param name="colorSpace" val="rgb" valType="str" updates="constant"/>\u000a        <Param name="name" val="Instr_Pic" valType="code" updates="constant"/>\u000a        <Param name="color" val="$[1,1,1]" valType="str" updates="constant"/>\u000a        <Param name="stopVal" val="" valType="code" updates="constant"/>\u000a        <Param name="durationEstim" val="" valType="code" updates="None"/>\u000a        <Param name="mask" val="None" valType="str" updates="constant"/>\u000a        <Param name="pos" val="[0, 0]" valType="code" updates="constant"/>\u000a        <Param name="interpolate" val="" valType="str" updates="constant"/>\u000a        <Param name="startEstim" val="" valType="code" updates="None"/>\u000a        <Param name="units" val="cm" valType="str" updates="None"/>\u000a        <Param name="texture resolution" val="128" valType="code" updates="constant"/>\u000a        <Param name="startType" val="time (s)" valType="str" updates="None"/>\u000a        <Param name="ori" val="0" valType="code" updates="constant"/>\u000a        <Param name="stopType" val="duration (s)" valType="str" updates="None"/>\u000a        <Param name="startVal" val="0.0" valType="code" updates="None"/>\u000a        <Param name="flipHoriz" val="False" valType="bool" updates="constant"/>\u000a        <Param name="image" val="$image" valType="str" updates="set every repeat"/>\u000a        <Param name="size" val="[1, 1]" valType="code" updates="constant"/>\u000a      </ImageComponent>\u000a    </Routine>\u000a  </Routines>\u000a  <Flow>\u000a    <LoopInitiator loopType="TrialHandler" name="instr_data">\u000a      <Param name="conditionsFile" val="instructions.xlsx" valType="str" updates="None"/>\u000a      <Param name="name" val="instr_data" valType="code" updates="None"/>\u000a      <Param name="random seed" val="" valType="code" updates="None"/>\u000a      <Param name="loopType" val="sequential" valType="str" updates="None"/>\u000a      <Param name="nReps" val="1" valType="code" updates="None"/>\u000a      <Param name="endPoints" val="[0, 1]" valType="num" updates="None"/>\u000a      <Param name="conditions" val="[{u'text': u'We are piloting a new method for group-grading exam questions. In this first section you will be reading aloud several arguments taken from LAW 204, Written and Oral Advocacy, taught at the UC Berkeley Law School.', u'image': u'nothing.jpg'}, {u'text': u'You will read through student responses taken from the essay portion of the midterm exam. In order to give an objective analysis, you will be asked to read the essay responses aloud. In addition, sentences from each essay response will be presented phrase-by-phrase, not all at once.', u'image': u'nothing.jpg'}, {u'text': u'Handwriting has been cropped and digitized into snippets like the one below, each of which contain individual phrases:', u'image': u'words\u005c\u005cexample.jpg'}, {u'text': u'These snippets of text will appear on the screen for only one second each. When each phrase appears please read it out loud.', u'image': u'nothing.jpg'}, {u'text': u'After you have read through each argument, you will be asked several questions about the complete argument. Please try to answer these questions as objectively as possible, as if you were a teaching assistant grading this exam.', u'image': u'nothing.jpg'}, {u'text': u&quot;After this slide you'll begin a practice session in order to familiarize yourself with how to evaluate these arguments. An experimenter will stand by to correct you if you make any mistakes. If you have any questions, please ask the experimenter now.&quot;, u'image': u'nothing.jpg'}]" valType="str" updates="None"/>\u000a    </LoopInitiator>\u000a    <Routine name="instructions"/>\u000a    <LoopTerminator name="instr_data"/>\u000a    <Routine name="pause"/>\u000a    <LoopInitiator loopType="TrialHandler" name="arguments_data">\u000a      <Param name="conditionsFile" val="arguments.csv" valType="str" updates="None"/>\u000a      <Param name="name" val="arguments_data" valType="code" updates="None"/>\u000a      <Param name="random seed" val="" valType="code" updates="None"/>\u000a      <Param name="loopType" val="random" valType="str" updates="None"/>\u000a      <Param name="nReps" val="1" valType="code" updates="None"/>\u000a      <Param name="endPoints" val="[0, 1]" valType="num" updates="None"/>\u000a      <Param name="conditions" val="[{'argument': u'clear_01.csv'}, {'argument': u'messy_01.csv'}]" valType="str" updates="None"/>\u000a    </LoopInitiator>\u000a    <Routine name="code"/>\u000a    <LoopInitiator loopType="TrialHandler" name="word_data">\u000a      <Param name="conditionsFile" val="$argument" valType="str" updates="None"/>\u000a      <Param name="name" val="word_data" valType="code" updates="None"/>\u000a      <Param name="random seed" val="" valType="code" updates="None"/>\u000a      <Param name="loopType" val="sequential" valType="str" updates="None"/>\u000a      <Param name="nReps" val="1" valType="code" updates="None"/>\u000a      <Param name="endPoints" val="[0, 1]" valType="num" updates="None"/>\u000a      <Param name="conditions" val="None" valType="str" updates="None"/>\u000a    </LoopInitiator>\u000a    <Routine name="code2"/>\u000a    <Routine name="argument"/>\u000a    <LoopTerminator name="word_data"/>\u000a    <LoopInitiator loopType="TrialHandler" name="questions">\u000a      <Param name="conditionsFile" val="questions.csv" valType="str" updates="None"/>\u000a      <Param name="name" val="questions" valType="code" updates="None"/>\u000a      <Param name="random seed" val="" valType="code" updates="None"/>\u000a      <Param name="loopType" val="random" valType="str" updates="None"/>\u000a      <Param name="nReps" val="1" valType="code" updates="None"/>\u000a      <Param name="endPoints" val="[0, 1]" valType="num" updates="None"/>\u000a      <Param name="conditions" val="None" valType="str" updates="None"/>\u000a    </LoopInitiator>\u000a    <Routine name="question"/>\u000a    <LoopTerminator name="questions"/>\u000a    <Routine name="next_arg"/>\u000a    <LoopTerminator name="arguments_data"/>\u000a    <Routine name="end"/>\u000a  </Flow>\u000a</PsychoPy2experiment>\u000a
p266
sg37
(lp267
sg44
I60508848
sg11
S'word_data'
p268
sg6
g7
sg46
I1
sg15
I01
sg16
g17
sg47
g1
(g48
g39
(dp269
g50
g51
(g52
g53
g54
S'b'
tRp270
(I1
(I5
I1
tg56
I00
S'\x00\x00\x80?\x00\x00\x80?\x00\x00\x80?\x00\x00\x80?\x00\x00\x80?'
S'\x00\x00\x00\x00\x00'
Ntbsg57
g51
(g52
g53
g54
S'b'
tRp271
(I1
(I5
I1
tg56
I00
S'\x00\x00\x00\x00\x00\x00\x80?\x00\x00\x00@\x00\x00@@\x00\x00\x80@'
S'\x00\x00\x00\x00\x00'
NtbstRp272
(dp273
g61
(dp274
g50
I01
sg57
I01
ssg63
g264
sg64
(lp275
g50
ag57
asg66
(lp276
I5
aI1
asbsg68
g249
sg70
g71
(g53
(I0
tS'b'
tRp277
(I1
(I5
I1
tg73
I00
S'\x00\x00\x00\x00\x01\x00\x00\x00\x02\x00\x00\x00\x03\x00\x00\x00\x04\x00\x00\x00'
tbsg74
I01
sg75
I1
sg76
I-1
sg77
(lp278
g1
(g38
g39
(dp279
g128
g187
stRp280
ag1
(g38
g39
(dp281
g128
g198
stRp282
ag1
(g38
g39
(dp283
g128
g209
stRp284
ag1
(g38
g39
(dp285
g128
g220
stRp286
ag1
(g38
g39
(dp287
g128
g231
stRp288
asg82
Nsg83
g229
sg85
I5
sg86
I0
sg87
I5
sg88
I01
sbag89
asS'savePickle'
p289
I01
sb.